
gof_ex.out:     file format elf64-x86-64


Disassembly of section .init:

0000000000001000 <_init>:
    1000:	48 83 ec 08          	sub    $0x8,%rsp
    1004:	48 8b 05 dd 9f 00 00 	mov    0x9fdd(%rip),%rax        # afe8 <__gmon_start__@Base>
    100b:	48 85 c0             	test   %rax,%rax
    100e:	74 02                	je     1012 <_init+0x12>
    1010:	ff d0                	call   *%rax
    1012:	48 83 c4 08          	add    $0x8,%rsp
    1016:	c3                   	ret    

Disassembly of section .plt:

0000000000001020 <strcpy@plt-0x10>:
    1020:	ff 35 e2 9f 00 00    	push   0x9fe2(%rip)        # b008 <_GLOBAL_OFFSET_TABLE_+0x8>
    1026:	ff 25 e4 9f 00 00    	jmp    *0x9fe4(%rip)        # b010 <_GLOBAL_OFFSET_TABLE_+0x10>
    102c:	0f 1f 40 00          	nopl   0x0(%rax)

0000000000001030 <strcpy@plt>:
    1030:	ff 25 e2 9f 00 00    	jmp    *0x9fe2(%rip)        # b018 <strcpy@GLIBC_2.2.5>
    1036:	68 00 00 00 00       	push   $0x0
    103b:	e9 e0 ff ff ff       	jmp    1020 <_init+0x20>

0000000000001040 <puts@plt>:
    1040:	ff 25 da 9f 00 00    	jmp    *0x9fda(%rip)        # b020 <puts@GLIBC_2.2.5>
    1046:	68 01 00 00 00       	push   $0x1
    104b:	e9 d0 ff ff ff       	jmp    1020 <_init+0x20>

0000000000001050 <clock@plt>:
    1050:	ff 25 d2 9f 00 00    	jmp    *0x9fd2(%rip)        # b028 <clock@GLIBC_2.2.5>
    1056:	68 02 00 00 00       	push   $0x2
    105b:	e9 c0 ff ff ff       	jmp    1020 <_init+0x20>

0000000000001060 <fclose@plt>:
    1060:	ff 25 ca 9f 00 00    	jmp    *0x9fca(%rip)        # b030 <fclose@GLIBC_2.2.5>
    1066:	68 03 00 00 00       	push   $0x3
    106b:	e9 b0 ff ff ff       	jmp    1020 <_init+0x20>

0000000000001070 <omp_get_wtime@plt>:
    1070:	ff 25 c2 9f 00 00    	jmp    *0x9fc2(%rip)        # b038 <omp_get_wtime@OMP_2.0>
    1076:	68 04 00 00 00       	push   $0x4
    107b:	e9 a0 ff ff ff       	jmp    1020 <_init+0x20>

0000000000001080 <strlen@plt>:
    1080:	ff 25 ba 9f 00 00    	jmp    *0x9fba(%rip)        # b040 <strlen@GLIBC_2.2.5>
    1086:	68 05 00 00 00       	push   $0x5
    108b:	e9 90 ff ff ff       	jmp    1020 <_init+0x20>

0000000000001090 <getopt_long@plt>:
    1090:	ff 25 b2 9f 00 00    	jmp    *0x9fb2(%rip)        # b048 <getopt_long@GLIBC_2.2.5>
    1096:	68 06 00 00 00       	push   $0x6
    109b:	e9 80 ff ff ff       	jmp    1020 <_init+0x20>

00000000000010a0 <printf@plt>:
    10a0:	ff 25 aa 9f 00 00    	jmp    *0x9faa(%rip)        # b050 <printf@GLIBC_2.2.5>
    10a6:	68 07 00 00 00       	push   $0x7
    10ab:	e9 70 ff ff ff       	jmp    1020 <_init+0x20>

00000000000010b0 <fputc@plt>:
    10b0:	ff 25 a2 9f 00 00    	jmp    *0x9fa2(%rip)        # b058 <fputc@GLIBC_2.2.5>
    10b6:	68 08 00 00 00       	push   $0x8
    10bb:	e9 60 ff ff ff       	jmp    1020 <_init+0x20>

00000000000010c0 <srand@plt>:
    10c0:	ff 25 9a 9f 00 00    	jmp    *0x9f9a(%rip)        # b060 <srand@GLIBC_2.2.5>
    10c6:	68 09 00 00 00       	push   $0x9
    10cb:	e9 50 ff ff ff       	jmp    1020 <_init+0x20>

00000000000010d0 <fprintf@plt>:
    10d0:	ff 25 92 9f 00 00    	jmp    *0x9f92(%rip)        # b068 <fprintf@GLIBC_2.2.5>
    10d6:	68 0a 00 00 00       	push   $0xa
    10db:	e9 40 ff ff ff       	jmp    1020 <_init+0x20>

00000000000010e0 <strtol@plt>:
    10e0:	ff 25 8a 9f 00 00    	jmp    *0x9f8a(%rip)        # b070 <strtol@GLIBC_2.2.5>
    10e6:	68 0b 00 00 00       	push   $0xb
    10eb:	e9 30 ff ff ff       	jmp    1020 <_init+0x20>

00000000000010f0 <time@plt>:
    10f0:	ff 25 82 9f 00 00    	jmp    *0x9f82(%rip)        # b078 <time@GLIBC_2.2.5>
    10f6:	68 0c 00 00 00       	push   $0xc
    10fb:	e9 20 ff ff ff       	jmp    1020 <_init+0x20>

0000000000001100 <malloc@plt>:
    1100:	ff 25 7a 9f 00 00    	jmp    *0x9f7a(%rip)        # b080 <malloc@GLIBC_2.2.5>
    1106:	68 0d 00 00 00       	push   $0xd
    110b:	e9 10 ff ff ff       	jmp    1020 <_init+0x20>

0000000000001110 <fopen@plt>:
    1110:	ff 25 72 9f 00 00    	jmp    *0x9f72(%rip)        # b088 <fopen@GLIBC_2.2.5>
    1116:	68 0e 00 00 00       	push   $0xe
    111b:	e9 00 ff ff ff       	jmp    1020 <_init+0x20>

0000000000001120 <strtok@plt>:
    1120:	ff 25 6a 9f 00 00    	jmp    *0x9f6a(%rip)        # b090 <strtok@GLIBC_2.2.5>
    1126:	68 0f 00 00 00       	push   $0xf
    112b:	e9 f0 fe ff ff       	jmp    1020 <_init+0x20>

0000000000001130 <sprintf@plt>:
    1130:	ff 25 62 9f 00 00    	jmp    *0x9f62(%rip)        # b098 <sprintf@GLIBC_2.2.5>
    1136:	68 10 00 00 00       	push   $0x10
    113b:	e9 e0 fe ff ff       	jmp    1020 <_init+0x20>

0000000000001140 <exit@plt>:
    1140:	ff 25 5a 9f 00 00    	jmp    *0x9f5a(%rip)        # b0a0 <exit@GLIBC_2.2.5>
    1146:	68 11 00 00 00       	push   $0x11
    114b:	e9 d0 fe ff ff       	jmp    1020 <_init+0x20>

0000000000001150 <fwrite@plt>:
    1150:	ff 25 52 9f 00 00    	jmp    *0x9f52(%rip)        # b0a8 <fwrite@GLIBC_2.2.5>
    1156:	68 12 00 00 00       	push   $0x12
    115b:	e9 c0 fe ff ff       	jmp    1020 <_init+0x20>

0000000000001160 <omp_get_thread_limit@plt>:
    1160:	ff 25 4a 9f 00 00    	jmp    *0x9f4a(%rip)        # b0b0 <omp_get_thread_limit@OMP_3.0>
    1166:	68 13 00 00 00       	push   $0x13
    116b:	e9 b0 fe ff ff       	jmp    1020 <_init+0x20>

0000000000001170 <rand@plt>:
    1170:	ff 25 42 9f 00 00    	jmp    *0x9f42(%rip)        # b0b8 <rand@GLIBC_2.2.5>
    1176:	68 14 00 00 00       	push   $0x14
    117b:	e9 a0 fe ff ff       	jmp    1020 <_init+0x20>

Disassembly of section .plt.got:

0000000000001180 <__cxa_finalize@plt>:
    1180:	ff 25 72 9e 00 00    	jmp    *0x9e72(%rip)        # aff8 <__cxa_finalize@GLIBC_2.2.5>
    1186:	66 90                	xchg   %ax,%ax

Disassembly of section .text:

0000000000001190 <main>:
    1190:	41 57                	push   %r15
    1192:	41 56                	push   %r14
    1194:	41 55                	push   %r13
    1196:	41 54                	push   %r12
    1198:	55                   	push   %rbp
    1199:	53                   	push   %rbx
    119a:	48 83 ec 38          	sub    $0x38,%rsp
    119e:	e8 2d 6a 00 00       	call   7bd0 <argments>
    11a3:	48 8d 3d d8 7e 00 00 	lea    0x7ed8(%rip),%rdi        # 9082 <_IO_stdin_used+0x82>
    11aa:	e8 91 fe ff ff       	call   1040 <puts@plt>
    11af:	e8 ac ff ff ff       	call   1160 <omp_get_thread_limit@plt>
    11b4:	8b 35 36 a0 00 00    	mov    0xa036(%rip),%esi        # b1f0 <repetitions>
    11ba:	48 8d 3d 17 81 00 00 	lea    0x8117(%rip),%rdi        # 92d8 <_IO_stdin_used+0x2d8>
    11c1:	89 c2                	mov    %eax,%edx
    11c3:	31 c0                	xor    %eax,%eax
    11c5:	e8 d6 fe ff ff       	call   10a0 <printf@plt>
    11ca:	48 8b 15 0f a0 00 00 	mov    0xa00f(%rip),%rdx        # b1e0 <rows>
    11d1:	48 8b 35 10 a0 00 00 	mov    0xa010(%rip),%rsi        # b1e8 <columns>
    11d8:	31 c0                	xor    %eax,%eax
    11da:	48 8d 3d 27 81 00 00 	lea    0x8127(%rip),%rdi        # 9308 <_IO_stdin_used+0x308>
    11e1:	e8 ba fe ff ff       	call   10a0 <printf@plt>
    11e6:	48 8d 3d b2 7e 00 00 	lea    0x7eb2(%rip),%rdi        # 909f <_IO_stdin_used+0x9f>
    11ed:	e8 4e fe ff ff       	call   1040 <puts@plt>
    11f2:	4c 8b 25 ef 9f 00 00 	mov    0x9fef(%rip),%r12        # b1e8 <columns>
    11f9:	4c 0f af 25 df 9f 00 	imul   0x9fdf(%rip),%r12        # b1e0 <rows>
    1200:	00 
    1201:	4c 89 e7             	mov    %r12,%rdi
    1204:	e8 f7 fe ff ff       	call   1100 <malloc@plt>
    1209:	4c 89 e7             	mov    %r12,%rdi
    120c:	48 89 c5             	mov    %rax,%rbp
    120f:	e8 ec fe ff ff       	call   1100 <malloc@plt>
    1214:	48 89 c3             	mov    %rax,%rbx
    1217:	e8 34 fe ff ff       	call   1050 <clock@plt>
    121c:	49 89 c4             	mov    %rax,%r12
    121f:	e8 4c fe ff ff       	call   1070 <omp_get_wtime@plt>
    1224:	48 89 ef             	mov    %rbp,%rdi
    1227:	c5 fb 11 04 24       	vmovsd %xmm0,(%rsp)
    122c:	e8 5f 03 00 00       	call   1590 <field_initializer>
    1231:	e8 3a fe ff ff       	call   1070 <omp_get_wtime@plt>
    1236:	c5 fb 5c 3c 24       	vsubsd (%rsp),%xmm0,%xmm7
    123b:	c5 fb 11 7c 24 20    	vmovsd %xmm7,0x20(%rsp)
    1241:	e8 0a fe ff ff       	call   1050 <clock@plt>
    1246:	c5 d1 57 ed          	vxorpd %xmm5,%xmm5,%xmm5
    124a:	48 c7 44 24 18 00 00 	movq   $0x0,0x18(%rsp)
    1251:	00 00 
    1253:	4c 29 e0             	sub    %r12,%rax
    1256:	80 3d 6c a0 00 00 00 	cmpb   $0x0,0xa06c(%rip)        # b2c9 <produce_output>
    125d:	c4 e1 d3 2a c0       	vcvtsi2sd %rax,%xmm5,%xmm0
    1262:	c5 fb 5e 35 f6 82 00 	vdivsd 0x82f6(%rip),%xmm0,%xmm6        # 9560 <_IO_stdin_used+0x560>
    1269:	00 
    126a:	c5 fb 11 74 24 28    	vmovsd %xmm6,0x28(%rsp)
    1270:	0f 85 c8 01 00 00    	jne    143e <main+0x2ae>
    1276:	8b 05 74 9f 00 00    	mov    0x9f74(%rip),%eax        # b1f0 <repetitions>
    127c:	85 c0                	test   %eax,%eax
    127e:	0f 8e f9 01 00 00    	jle    147d <main+0x2ed>
    1284:	c5 c1 57 ff          	vxorpd %xmm7,%xmm7,%xmm7
    1288:	45 31 e4             	xor    %r12d,%r12d
    128b:	4c 8d 2d 1d 7e 00 00 	lea    0x7e1d(%rip),%r13        # 90af <_IO_stdin_used+0xaf>
    1292:	c5 fb 11 3c 24       	vmovsd %xmm7,(%rsp)
    1297:	c5 fb 11 7c 24 08    	vmovsd %xmm7,0x8(%rsp)
    129d:	eb 27                	jmp    12c6 <main+0x136>
    129f:	90                   	nop
    12a0:	80 3d 22 a0 00 00 00 	cmpb   $0x0,0xa022(%rip)        # b2c9 <produce_output>
    12a7:	0f 85 c7 00 00 00    	jne    1374 <main+0x1e4>
    12ad:	44 39 35 3c 9f 00 00 	cmp    %r14d,0x9f3c(%rip)        # b1f0 <repetitions>
    12b4:	0f 8e ff 00 00 00    	jle    13b9 <main+0x229>
    12ba:	48 89 e8             	mov    %rbp,%rax
    12bd:	45 89 f4             	mov    %r14d,%r12d
    12c0:	48 89 dd             	mov    %rbx,%rbp
    12c3:	48 89 c3             	mov    %rax,%rbx
    12c6:	e8 85 fd ff ff       	call   1050 <clock@plt>
    12cb:	49 89 c6             	mov    %rax,%r14
    12ce:	e8 9d fd ff ff       	call   1070 <omp_get_wtime@plt>
    12d3:	48 89 ee             	mov    %rbp,%rsi
    12d6:	48 89 df             	mov    %rbx,%rdi
    12d9:	c5 fb 11 44 24 10    	vmovsd %xmm0,0x10(%rsp)
    12df:	e8 9c 64 00 00       	call   7780 <calculate_next_gen>
    12e4:	e8 87 fd ff ff       	call   1070 <omp_get_wtime@plt>
    12e9:	c5 fb 5c 54 24 10    	vsubsd 0x10(%rsp),%xmm0,%xmm2
    12ef:	c5 fb 11 54 24 10    	vmovsd %xmm2,0x10(%rsp)
    12f5:	e8 56 fd ff ff       	call   1050 <clock@plt>
    12fa:	c5 c9 57 f6          	vxorpd %xmm6,%xmm6,%xmm6
    12fe:	c5 fb 10 54 24 10    	vmovsd 0x10(%rsp),%xmm2
    1304:	c5 eb 58 24 24       	vaddsd (%rsp),%xmm2,%xmm4
    1309:	4c 29 f0             	sub    %r14,%rax
    130c:	80 3d b7 9f 00 00 00 	cmpb   $0x0,0x9fb7(%rip)        # b2ca <show_progress>
    1313:	45 8d 74 24 01       	lea    0x1(%r12),%r14d
    1318:	c4 e1 cb 2a c0       	vcvtsi2sd %rax,%xmm6,%xmm0
    131d:	c5 fb 5e 05 3b 82 00 	vdivsd 0x823b(%rip),%xmm0,%xmm0        # 9560 <_IO_stdin_used+0x560>
    1324:	00 
    1325:	c5 fb 58 7c 24 08    	vaddsd 0x8(%rsp),%xmm0,%xmm7
    132b:	c5 fb 11 24 24       	vmovsd %xmm4,(%rsp)
    1330:	c5 fb 11 7c 24 08    	vmovsd %xmm7,0x8(%rsp)
    1336:	0f 84 64 ff ff ff    	je     12a0 <main+0x110>
    133c:	c4 c1 4b 2a c6       	vcvtsi2sd %r14d,%xmm6,%xmm0
    1341:	be 25 00 00 00       	mov    $0x25,%esi
    1346:	4c 89 ef             	mov    %r13,%rdi
    1349:	b8 01 00 00 00       	mov    $0x1,%eax
    134e:	c5 fb 59 05 12 82 00 	vmulsd 0x8212(%rip),%xmm0,%xmm0        # 9568 <_IO_stdin_used+0x568>
    1355:	00 
    1356:	c5 cb 2a 0d 92 9e 00 	vcvtsi2sdl 0x9e92(%rip),%xmm6,%xmm1        # b1f0 <repetitions>
    135d:	00 
    135e:	c5 fb 5e c1          	vdivsd %xmm1,%xmm0,%xmm0
    1362:	e8 39 fd ff ff       	call   10a0 <printf@plt>
    1367:	80 3d 5b 9f 00 00 00 	cmpb   $0x0,0x9f5b(%rip)        # b2c9 <produce_output>
    136e:	0f 84 39 ff ff ff    	je     12ad <main+0x11d>
    1374:	e8 d7 fc ff ff       	call   1050 <clock@plt>
    1379:	44 89 e6             	mov    %r12d,%esi
    137c:	48 89 df             	mov    %rbx,%rdi
    137f:	49 89 c7             	mov    %rax,%r15
    1382:	e8 39 67 00 00       	call   7ac0 <write_pbm_file>
    1387:	e8 c4 fc ff ff       	call   1050 <clock@plt>
    138c:	c5 d9 57 e4          	vxorpd %xmm4,%xmm4,%xmm4
    1390:	4c 29 f8             	sub    %r15,%rax
    1393:	44 39 35 56 9e 00 00 	cmp    %r14d,0x9e56(%rip)        # b1f0 <repetitions>
    139a:	c4 e1 db 2a c0       	vcvtsi2sd %rax,%xmm4,%xmm0
    139f:	c5 fb 5e 05 b9 81 00 	vdivsd 0x81b9(%rip),%xmm0,%xmm0        # 9560 <_IO_stdin_used+0x560>
    13a6:	00 
    13a7:	c5 fb 58 6c 24 18    	vaddsd 0x18(%rsp),%xmm0,%xmm5
    13ad:	c5 fb 11 6c 24 18    	vmovsd %xmm5,0x18(%rsp)
    13b3:	0f 8f 01 ff ff ff    	jg     12ba <main+0x12a>
    13b9:	c5 fb 10 44 24 28    	vmovsd 0x28(%rsp),%xmm0
    13bf:	48 8d 3d 6a 7f 00 00 	lea    0x7f6a(%rip),%rdi        # 9330 <_IO_stdin_used+0x330>
    13c6:	b8 01 00 00 00       	mov    $0x1,%eax
    13cb:	e8 d0 fc ff ff       	call   10a0 <printf@plt>
    13d0:	c5 fb 10 44 24 20    	vmovsd 0x20(%rsp),%xmm0
    13d6:	b8 01 00 00 00       	mov    $0x1,%eax
    13db:	48 8d 3d 96 7f 00 00 	lea    0x7f96(%rip),%rdi        # 9378 <_IO_stdin_used+0x378>
    13e2:	e8 b9 fc ff ff       	call   10a0 <printf@plt>
    13e7:	c5 fb 10 44 24 08    	vmovsd 0x8(%rsp),%xmm0
    13ed:	b8 01 00 00 00       	mov    $0x1,%eax
    13f2:	48 8d 3d bf 7f 00 00 	lea    0x7fbf(%rip),%rdi        # 93b8 <_IO_stdin_used+0x3b8>
    13f9:	e8 a2 fc ff ff       	call   10a0 <printf@plt>
    13fe:	c5 fb 10 04 24       	vmovsd (%rsp),%xmm0
    1403:	b8 01 00 00 00       	mov    $0x1,%eax
    1408:	48 8d 3d e9 7f 00 00 	lea    0x7fe9(%rip),%rdi        # 93f8 <_IO_stdin_used+0x3f8>
    140f:	e8 8c fc ff ff       	call   10a0 <printf@plt>
    1414:	c5 fb 10 44 24 18    	vmovsd 0x18(%rsp),%xmm0
    141a:	b8 01 00 00 00       	mov    $0x1,%eax
    141f:	48 8d 3d 0a 80 00 00 	lea    0x800a(%rip),%rdi        # 9430 <_IO_stdin_used+0x430>
    1426:	e8 75 fc ff ff       	call   10a0 <printf@plt>
    142b:	48 8d 3d 86 7c 00 00 	lea    0x7c86(%rip),%rdi        # 90b8 <_IO_stdin_used+0xb8>
    1432:	e8 09 fc ff ff       	call   1040 <puts@plt>
    1437:	31 ff                	xor    %edi,%edi
    1439:	e8 02 fd ff ff       	call   1140 <exit@plt>
    143e:	e8 0d fc ff ff       	call   1050 <clock@plt>
    1443:	83 ce ff             	or     $0xffffffff,%esi
    1446:	48 89 ef             	mov    %rbp,%rdi
    1449:	49 89 c4             	mov    %rax,%r12
    144c:	e8 6f 66 00 00       	call   7ac0 <write_pbm_file>
    1451:	e8 fa fb ff ff       	call   1050 <clock@plt>
    1456:	c5 c1 57 ff          	vxorpd %xmm7,%xmm7,%xmm7
    145a:	c5 d9 57 e4          	vxorpd %xmm4,%xmm4,%xmm4
    145e:	4c 29 e0             	sub    %r12,%rax
    1461:	c4 e1 c3 2a c0       	vcvtsi2sd %rax,%xmm7,%xmm0
    1466:	c5 fb 5e 05 f2 80 00 	vdivsd 0x80f2(%rip),%xmm0,%xmm0        # 9560 <_IO_stdin_used+0x560>
    146d:	00 
    146e:	c5 fb 58 fc          	vaddsd %xmm4,%xmm0,%xmm7
    1472:	c5 fb 11 7c 24 18    	vmovsd %xmm7,0x18(%rsp)
    1478:	e9 f9 fd ff ff       	jmp    1276 <main+0xe6>
    147d:	c5 d1 57 ed          	vxorpd %xmm5,%xmm5,%xmm5
    1481:	c5 fb 11 2c 24       	vmovsd %xmm5,(%rsp)
    1486:	c5 fb 11 6c 24 08    	vmovsd %xmm5,0x8(%rsp)
    148c:	e9 28 ff ff ff       	jmp    13b9 <main+0x229>
    1491:	66 2e 0f 1f 84 00 00 	cs nopw 0x0(%rax,%rax,1)
    1498:	00 00 00 
    149b:	0f 1f 44 00 00       	nopl   0x0(%rax,%rax,1)

00000000000014a0 <_start>:
    14a0:	31 ed                	xor    %ebp,%ebp
    14a2:	49 89 d1             	mov    %rdx,%r9
    14a5:	5e                   	pop    %rsi
    14a6:	48 89 e2             	mov    %rsp,%rdx
    14a9:	48 83 e4 f0          	and    $0xfffffffffffffff0,%rsp
    14ad:	50                   	push   %rax
    14ae:	54                   	push   %rsp
    14af:	4c 8d 05 4a 74 00 00 	lea    0x744a(%rip),%r8        # 8900 <__libc_csu_fini>
    14b6:	48 8d 0d e3 73 00 00 	lea    0x73e3(%rip),%rcx        # 88a0 <__libc_csu_init>
    14bd:	48 8d 3d cc fc ff ff 	lea    -0x334(%rip),%rdi        # 1190 <main>
    14c4:	ff 15 16 9b 00 00    	call   *0x9b16(%rip)        # afe0 <__libc_start_main@GLIBC_2.2.5>
    14ca:	f4                   	hlt    
    14cb:	0f 1f 44 00 00       	nopl   0x0(%rax,%rax,1)

00000000000014d0 <deregister_tm_clones>:
    14d0:	48 8d 3d e9 9d 00 00 	lea    0x9de9(%rip),%rdi        # b2c0 <optarg@@GLIBC_2.2.5>
    14d7:	48 8d 05 e2 9d 00 00 	lea    0x9de2(%rip),%rax        # b2c0 <optarg@@GLIBC_2.2.5>
    14de:	48 39 f8             	cmp    %rdi,%rax
    14e1:	74 15                	je     14f8 <deregister_tm_clones+0x28>
    14e3:	48 8b 05 ee 9a 00 00 	mov    0x9aee(%rip),%rax        # afd8 <_ITM_deregisterTMCloneTable@Base>
    14ea:	48 85 c0             	test   %rax,%rax
    14ed:	74 09                	je     14f8 <deregister_tm_clones+0x28>
    14ef:	ff e0                	jmp    *%rax
    14f1:	0f 1f 80 00 00 00 00 	nopl   0x0(%rax)
    14f8:	c3                   	ret    
    14f9:	0f 1f 80 00 00 00 00 	nopl   0x0(%rax)

0000000000001500 <register_tm_clones>:
    1500:	48 8d 3d b9 9d 00 00 	lea    0x9db9(%rip),%rdi        # b2c0 <optarg@@GLIBC_2.2.5>
    1507:	48 8d 35 b2 9d 00 00 	lea    0x9db2(%rip),%rsi        # b2c0 <optarg@@GLIBC_2.2.5>
    150e:	48 29 fe             	sub    %rdi,%rsi
    1511:	48 89 f0             	mov    %rsi,%rax
    1514:	48 c1 ee 3f          	shr    $0x3f,%rsi
    1518:	48 c1 f8 03          	sar    $0x3,%rax
    151c:	48 01 c6             	add    %rax,%rsi
    151f:	48 d1 fe             	sar    %rsi
    1522:	74 14                	je     1538 <register_tm_clones+0x38>
    1524:	48 8b 05 c5 9a 00 00 	mov    0x9ac5(%rip),%rax        # aff0 <_ITM_registerTMCloneTable@Base>
    152b:	48 85 c0             	test   %rax,%rax
    152e:	74 08                	je     1538 <register_tm_clones+0x38>
    1530:	ff e0                	jmp    *%rax
    1532:	66 0f 1f 44 00 00    	nopw   0x0(%rax,%rax,1)
    1538:	c3                   	ret    
    1539:	0f 1f 80 00 00 00 00 	nopl   0x0(%rax)

0000000000001540 <__do_global_dtors_aux>:
    1540:	f3 0f 1e fa          	endbr64 
    1544:	80 3d 7d 9d 00 00 00 	cmpb   $0x0,0x9d7d(%rip)        # b2c8 <completed.0>
    154b:	75 2b                	jne    1578 <__do_global_dtors_aux+0x38>
    154d:	55                   	push   %rbp
    154e:	48 83 3d a2 9a 00 00 	cmpq   $0x0,0x9aa2(%rip)        # aff8 <__cxa_finalize@GLIBC_2.2.5>
    1555:	00 
    1556:	48 89 e5             	mov    %rsp,%rbp
    1559:	74 0c                	je     1567 <__do_global_dtors_aux+0x27>
    155b:	48 8b 3d 66 9b 00 00 	mov    0x9b66(%rip),%rdi        # b0c8 <__dso_handle>
    1562:	e8 19 fc ff ff       	call   1180 <__cxa_finalize@plt>
    1567:	e8 64 ff ff ff       	call   14d0 <deregister_tm_clones>
    156c:	c6 05 55 9d 00 00 01 	movb   $0x1,0x9d55(%rip)        # b2c8 <completed.0>
    1573:	5d                   	pop    %rbp
    1574:	c3                   	ret    
    1575:	0f 1f 00             	nopl   (%rax)
    1578:	c3                   	ret    
    1579:	0f 1f 80 00 00 00 00 	nopl   0x0(%rax)

0000000000001580 <frame_dummy>:
    1580:	f3 0f 1e fa          	endbr64 
    1584:	e9 77 ff ff ff       	jmp    1500 <register_tm_clones>
    1589:	0f 1f 80 00 00 00 00 	nopl   0x0(%rax)

0000000000001590 <field_initializer>:
    1590:	55                   	push   %rbp
    1591:	be 5c 11 00 00       	mov    $0x115c,%esi
    1596:	48 89 e5             	mov    %rsp,%rbp
    1599:	41 55                	push   %r13
    159b:	41 54                	push   %r12
    159d:	49 89 fc             	mov    %rdi,%r12
    15a0:	bf 44 01 00 00       	mov    $0x144,%edi
    15a5:	53                   	push   %rbx
    15a6:	48 83 e4 e0          	and    $0xffffffffffffffe0,%rsp
    15aa:	48 83 ec 40          	sub    $0x40,%rsp
    15ae:	49 89 e5             	mov    %rsp,%r13
    15b1:	4c 89 ea             	mov    %r13,%rdx
    15b4:	e8 47 68 00 00       	call   7e00 <avx_xorshift128plus_init>
    15b9:	4c 89 ef             	mov    %r13,%rdi
    15bc:	e8 7f 6a 00 00       	call   8040 <avx_xorshift128plus>
    15c1:	48 8d 3d 3c 7a 00 00 	lea    0x7a3c(%rip),%rdi        # 9004 <_IO_stdin_used+0x4>
    15c8:	31 c0                	xor    %eax,%eax
    15ca:	c4 e3 79 14 c2 01    	vpextrb $0x1,%xmm0,%edx
    15d0:	c4 e3 79 14 c6 00    	vpextrb $0x0,%xmm0,%esi
    15d6:	c5 f8 77             	vzeroupper 
    15d9:	e8 c2 fa ff ff       	call   10a0 <printf@plt>
    15de:	31 ff                	xor    %edi,%edi
    15e0:	e8 0b fb ff ff       	call   10f0 <time@plt>
    15e5:	89 c7                	mov    %eax,%edi
    15e7:	e8 d4 fa ff ff       	call   10c0 <srand@plt>
    15ec:	48 8b 05 ed 9b 00 00 	mov    0x9bed(%rip),%rax        # b1e0 <rows>
    15f3:	0f af 05 ee 9b 00 00 	imul   0x9bee(%rip),%eax        # b1e8 <columns>
    15fa:	85 c0                	test   %eax,%eax
    15fc:	7e 31                	jle    162f <field_initializer+0x9f>
    15fe:	83 e8 01             	sub    $0x1,%eax
    1601:	49 8d 5c 04 01       	lea    0x1(%r12,%rax,1),%rbx
    1606:	66 2e 0f 1f 84 00 00 	cs nopw 0x0(%rax,%rax,1)
    160d:	00 00 00 
    1610:	e8 5b fb ff ff       	call   1170 <rand@plt>
    1615:	49 83 c4 01          	add    $0x1,%r12
    1619:	89 c2                	mov    %eax,%edx
    161b:	c1 ea 1f             	shr    $0x1f,%edx
    161e:	01 d0                	add    %edx,%eax
    1620:	83 e0 01             	and    $0x1,%eax
    1623:	29 d0                	sub    %edx,%eax
    1625:	41 88 44 24 ff       	mov    %al,-0x1(%r12)
    162a:	49 39 dc             	cmp    %rbx,%r12
    162d:	75 e1                	jne    1610 <field_initializer+0x80>
    162f:	48 8d 65 e8          	lea    -0x18(%rbp),%rsp
    1633:	5b                   	pop    %rbx
    1634:	41 5c                	pop    %r12
    1636:	41 5d                	pop    %r13
    1638:	5d                   	pop    %rbp
    1639:	c3                   	ret    
    163a:	66 0f 1f 44 00 00    	nopw   0x0(%rax,%rax,1)

0000000000001640 <calculate_corners>:
    1640:	41 57                	push   %r15
    1642:	4c 8b 15 9f 9b 00 00 	mov    0x9b9f(%rip),%r10        # b1e8 <columns>
    1649:	48 89 f9             	mov    %rdi,%rcx
    164c:	48 89 f0             	mov    %rsi,%rax
    164f:	41 56                	push   %r14
    1651:	4c 8b 35 88 9b 00 00 	mov    0x9b88(%rip),%r14        # b1e0 <rows>
    1658:	4c 89 d7             	mov    %r10,%rdi
    165b:	4f 8d 3c 12          	lea    (%r10,%r10,1),%r15
    165f:	41 55                	push   %r13
    1661:	4d 8d 4e ff          	lea    -0x1(%r14),%r9
    1665:	41 54                	push   %r12
    1667:	4a 8d 54 3e ff       	lea    -0x1(%rsi,%r15,1),%rdx
    166c:	4d 0f af ca          	imul   %r10,%r9
    1670:	55                   	push   %rbp
    1671:	4a 8d 6c 16 ff       	lea    -0x1(%rsi,%r10,1),%rbp
    1676:	49 0f af fe          	imul   %r14,%rdi
    167a:	53                   	push   %rbx
    167b:	4a 8d 1c 16          	lea    (%rsi,%r10,1),%rbx
    167f:	44 0f b6 03          	movzbl (%rbx),%r8d
    1683:	46 02 44 10 01       	add    0x1(%rax,%r10,1),%r8b
    1688:	4e 8d 1c 0e          	lea    (%rsi,%r9,1),%r11
    168c:	4e 8d 6c 0e 01       	lea    0x1(%rsi,%r9,1),%r13
    1691:	44 02 40 01          	add    0x1(%rax),%r8b
    1695:	48 8d 74 3e ff       	lea    -0x1(%rsi,%rdi,1),%rsi
    169a:	45 02 03             	add    (%r11),%r8b
    169d:	45 02 45 00          	add    0x0(%r13),%r8b
    16a1:	44 02 45 00          	add    0x0(%rbp),%r8b
    16a5:	44 02 02             	add    (%rdx),%r8b
    16a8:	44 02 06             	add    (%rsi),%r8b
    16ab:	41 80 f8 02          	cmp    $0x2,%r8b
    16af:	41 0f 94 c4          	sete   %r12b
    16b3:	44 22 20             	and    (%rax),%r12b
    16b6:	41 80 f8 03          	cmp    $0x3,%r8b
    16ba:	41 0f 94 c0          	sete   %r8b
    16be:	45 09 e0             	or     %r12d,%r8d
    16c1:	4e 8d 64 10 fe       	lea    -0x2(%rax,%r10,1),%r12
    16c6:	44 88 01             	mov    %r8b,(%rcx)
    16c9:	4c 8d 44 38 fe       	lea    -0x2(%rax,%rdi,1),%r8
    16ce:	0f b6 12             	movzbl (%rdx),%edx
    16d1:	41 02 14 24          	add    (%r12),%dl
    16d5:	02 10                	add    (%rax),%dl
    16d7:	42 02 54 38 fe       	add    -0x2(%rax,%r15,1),%dl
    16dc:	02 16                	add    (%rsi),%dl
    16de:	41 02 10             	add    (%r8),%dl
    16e1:	02 13                	add    (%rbx),%dl
    16e3:	41 02 13             	add    (%r11),%dl
    16e6:	80 fa 02             	cmp    $0x2,%dl
    16e9:	0f 94 c3             	sete   %bl
    16ec:	22 5d 00             	and    0x0(%rbp),%bl
    16ef:	80 fa 03             	cmp    $0x3,%dl
    16f2:	0f 94 c2             	sete   %dl
    16f5:	49 83 ee 02          	sub    $0x2,%r14
    16f9:	4d 0f af f2          	imul   %r10,%r14
    16fd:	09 da                	or     %ebx,%edx
    16ff:	42 88 54 11 ff       	mov    %dl,-0x1(%rcx,%r10,1)
    1704:	4e 8d 54 08 ff       	lea    -0x1(%rax,%r9,1),%r10
    1709:	0f b6 50 01          	movzbl 0x1(%rax),%edx
    170d:	02 10                	add    (%rax),%dl
    170f:	4a 8d 1c 30          	lea    (%rax,%r14,1),%rbx
    1713:	02 13                	add    (%rbx),%dl
    1715:	42 02 54 30 01       	add    0x1(%rax,%r14,1),%dl
    171a:	41 02 55 00          	add    0x0(%r13),%dl
    171e:	02 55 00             	add    0x0(%rbp),%dl
    1721:	41 02 12             	add    (%r10),%dl
    1724:	02 16                	add    (%rsi),%dl
    1726:	80 fa 02             	cmp    $0x2,%dl
    1729:	41 0f 94 c5          	sete   %r13b
    172d:	45 22 2b             	and    (%r11),%r13b
    1730:	80 fa 03             	cmp    $0x3,%dl
    1733:	0f 94 c2             	sete   %dl
    1736:	44 09 ea             	or     %r13d,%edx
    1739:	42 88 14 09          	mov    %dl,(%rcx,%r9,1)
    173d:	41 0f b6 14 24       	movzbl (%r12),%edx
    1742:	02 55 00             	add    0x0(%rbp),%dl
    1745:	02 10                	add    (%rax),%dl
    1747:	02 13                	add    (%rbx),%dl
    1749:	41 02 13             	add    (%r11),%dl
    174c:	41 02 12             	add    (%r10),%dl
    174f:	42 02 54 08 fe       	add    -0x2(%rax,%r9,1),%dl
    1754:	41 0f b6 00          	movzbl (%r8),%eax
    1758:	01 d0                	add    %edx,%eax
    175a:	3c 02                	cmp    $0x2,%al
    175c:	0f 94 c2             	sete   %dl
    175f:	22 16                	and    (%rsi),%dl
    1761:	3c 03                	cmp    $0x3,%al
    1763:	0f 94 c0             	sete   %al
    1766:	09 d0                	or     %edx,%eax
    1768:	88 44 39 ff          	mov    %al,-0x1(%rcx,%rdi,1)
    176c:	5b                   	pop    %rbx
    176d:	5d                   	pop    %rbp
    176e:	41 5c                	pop    %r12
    1770:	41 5d                	pop    %r13
    1772:	41 5e                	pop    %r14
    1774:	41 5f                	pop    %r15
    1776:	c3                   	ret    
    1777:	66 0f 1f 84 00 00 00 	nopw   0x0(%rax,%rax,1)
    177e:	00 00 

0000000000001780 <calculate_left_right>:
    1780:	55                   	push   %rbp
    1781:	49 89 f2             	mov    %rsi,%r10
    1784:	48 89 e5             	mov    %rsp,%rbp
    1787:	41 57                	push   %r15
    1789:	41 56                	push   %r14
    178b:	41 55                	push   %r13
    178d:	41 54                	push   %r12
    178f:	53                   	push   %rbx
    1790:	48 83 e4 e0          	and    $0xffffffffffffffe0,%rsp
    1794:	48 81 ec 88 07 00 00 	sub    $0x788,%rsp
    179b:	48 8b 05 3e 9a 00 00 	mov    0x9a3e(%rip),%rax        # b1e0 <rows>
    17a2:	48 83 e8 01          	sub    $0x1,%rax
    17a6:	48 89 84 24 e0 06 00 	mov    %rax,0x6e0(%rsp)
    17ad:	00 
    17ae:	89 44 24 a4          	mov    %eax,-0x5c(%rsp)
    17b2:	83 f8 01             	cmp    $0x1,%eax
    17b5:	0f 8e 52 02 00 00    	jle    1a0d <calculate_left_right+0x28d>
    17bb:	4c 8b 3d 26 9a 00 00 	mov    0x9a26(%rip),%r15        # b1e8 <columns>
    17c2:	48 89 fb             	mov    %rdi,%rbx
    17c5:	89 c1                	mov    %eax,%ecx
    17c7:	49 83 ff 01          	cmp    $0x1,%r15
    17cb:	0f 85 4f 02 00 00    	jne    1a20 <calculate_left_right+0x2a0>
    17d1:	8d 70 ff             	lea    -0x1(%rax),%esi
    17d4:	83 e8 02             	sub    $0x2,%eax
    17d7:	83 f8 1e             	cmp    $0x1e,%eax
    17da:	0f 86 a2 5b 00 00    	jbe    7382 <calculate_left_right+0x5c02>
    17e0:	89 f1                	mov    %esi,%ecx
    17e2:	49 8d 42 01          	lea    0x1(%r10),%rax
    17e6:	48 8d 57 01          	lea    0x1(%rdi),%rdx
    17ea:	c5 fd 6f 25 0e 7d 00 	vmovdqa 0x7d0e(%rip),%ymm4        # 9500 <_IO_stdin_used+0x500>
    17f1:	00 
    17f2:	c1 e9 05             	shr    $0x5,%ecx
    17f5:	c5 fd 6f 15 23 7d 00 	vmovdqa 0x7d23(%rip),%ymm2        # 9520 <_IO_stdin_used+0x520>
    17fc:	00 
    17fd:	c5 fd 6f 1d 3b 7d 00 	vmovdqa 0x7d3b(%rip),%ymm3        # 9540 <_IO_stdin_used+0x540>
    1804:	00 
    1805:	83 e9 01             	sub    $0x1,%ecx
    1808:	48 c1 e1 05          	shl    $0x5,%rcx
    180c:	49 8d 4c 0a 21       	lea    0x21(%r10,%rcx,1),%rcx
    1811:	0f 1f 80 00 00 00 00 	nopl   0x0(%rax)
    1818:	c5 fe 6f 78 01       	vmovdqu 0x1(%rax),%ymm7
    181d:	c5 c5 fc 28          	vpaddb (%rax),%ymm7,%ymm5
    1821:	48 83 c0 20          	add    $0x20,%rax
    1825:	48 83 c2 20          	add    $0x20,%rdx
    1829:	c5 c5 fc 40 df       	vpaddb -0x21(%rax),%ymm7,%ymm0
    182e:	c5 fe 6f 78 e2       	vmovdqu -0x1e(%rax),%ymm7
    1833:	c5 c5 fc 48 df       	vpaddb -0x21(%rax),%ymm7,%ymm1
    1838:	c5 fd fc c5          	vpaddb %ymm5,%ymm0,%ymm0
    183c:	c5 fd fc c1          	vpaddb %ymm1,%ymm0,%ymm0
    1840:	c5 fd fc c5          	vpaddb %ymm5,%ymm0,%ymm0
    1844:	c5 fd 74 cc          	vpcmpeqb %ymm4,%ymm0,%ymm1
    1848:	c5 fd 74 c3          	vpcmpeqb %ymm3,%ymm0,%ymm0
    184c:	c5 fd db c2          	vpand  %ymm2,%ymm0,%ymm0
    1850:	c5 fd db 40 e0       	vpand  -0x20(%rax),%ymm0,%ymm0
    1855:	c5 f5 db ca          	vpand  %ymm2,%ymm1,%ymm1
    1859:	c5 fd eb c1          	vpor   %ymm1,%ymm0,%ymm0
    185d:	c5 fe 7f 42 e0       	vmovdqu %ymm0,-0x20(%rdx)
    1862:	c5 fe 6f 68 df       	vmovdqu -0x21(%rax),%ymm5
    1867:	c5 fe 6f 48 e0       	vmovdqu -0x20(%rax),%ymm1
    186c:	c5 d5 fc 40 de       	vpaddb -0x22(%rax),%ymm5,%ymm0
    1871:	c5 d5 fc f1          	vpaddb %ymm1,%ymm5,%ymm6
    1875:	c5 d5 fc 68 e1       	vpaddb -0x1f(%rax),%ymm5,%ymm5
    187a:	c5 fd fc c6          	vpaddb %ymm6,%ymm0,%ymm0
    187e:	c5 fd fc c5          	vpaddb %ymm5,%ymm0,%ymm0
    1882:	c5 f5 fc 68 e1       	vpaddb -0x1f(%rax),%ymm1,%ymm5
    1887:	c5 fd fc c5          	vpaddb %ymm5,%ymm0,%ymm0
    188b:	c5 fd 74 ec          	vpcmpeqb %ymm4,%ymm0,%ymm5
    188f:	c5 fd 74 c3          	vpcmpeqb %ymm3,%ymm0,%ymm0
    1893:	c5 fd db c2          	vpand  %ymm2,%ymm0,%ymm0
    1897:	c5 d5 db ea          	vpand  %ymm2,%ymm5,%ymm5
    189b:	c5 f5 db c8          	vpand  %ymm0,%ymm1,%ymm1
    189f:	c5 f5 eb cd          	vpor   %ymm5,%ymm1,%ymm1
    18a3:	c5 fe 7f 4a e0       	vmovdqu %ymm1,-0x20(%rdx)
    18a8:	48 39 c8             	cmp    %rcx,%rax
    18ab:	0f 85 67 ff ff ff    	jne    1818 <calculate_left_right+0x98>
    18b1:	89 f0                	mov    %esi,%eax
    18b3:	83 e0 e0             	and    $0xffffffe0,%eax
    18b6:	8d 48 01             	lea    0x1(%rax),%ecx
    18b9:	39 c6                	cmp    %eax,%esi
    18bb:	0f 84 cd 5a 00 00    	je     738e <calculate_left_right+0x5c0e>
    18c1:	c5 f8 77             	vzeroupper 
    18c4:	8b 94 24 e0 06 00 00 	mov    0x6e0(%rsp),%edx
    18cb:	29 c2                	sub    %eax,%edx
    18cd:	44 8d 42 ff          	lea    -0x1(%rdx),%r8d
    18d1:	83 ea 02             	sub    $0x2,%edx
    18d4:	83 fa 0e             	cmp    $0xe,%edx
    18d7:	0f 86 c1 00 00 00    	jbe    199e <calculate_left_right+0x21e>
    18dd:	48 8d 50 01          	lea    0x1(%rax),%rdx
    18e1:	49 8d 74 02 02       	lea    0x2(%r10,%rax,1),%rsi
    18e6:	c5 f9 6f 35 12 7c 00 	vmovdqa 0x7c12(%rip),%xmm6        # 9500 <_IO_stdin_used+0x500>
    18ed:	00 
    18ee:	c5 f9 6f 25 4a 7c 00 	vmovdqa 0x7c4a(%rip),%xmm4        # 9540 <_IO_stdin_used+0x540>
    18f5:	00 
    18f6:	4d 8d 0c 02          	lea    (%r10,%rax,1),%r9
    18fa:	49 8d 3c 12          	lea    (%r10,%rdx,1),%rdi
    18fe:	c5 fa 6f 1e          	vmovdqu (%rsi),%xmm3
    1902:	48 01 da             	add    %rbx,%rdx
    1905:	c5 fa 6f 0f          	vmovdqu (%rdi),%xmm1
    1909:	c4 c1 61 fc 01       	vpaddb (%r9),%xmm3,%xmm0
    190e:	c5 f1 fc d3          	vpaddb %xmm3,%xmm1,%xmm2
    1912:	c5 f9 fc c0          	vpaddb %xmm0,%xmm0,%xmm0
    1916:	c5 f9 6f 1d 02 7c 00 	vmovdqa 0x7c02(%rip),%xmm3        # 9520 <_IO_stdin_used+0x520>
    191d:	00 
    191e:	c5 f9 fc c2          	vpaddb %xmm2,%xmm0,%xmm0
    1922:	c4 c1 71 fc 54 02 03 	vpaddb 0x3(%r10,%rax,1),%xmm1,%xmm2
    1929:	c5 f9 fc c2          	vpaddb %xmm2,%xmm0,%xmm0
    192d:	c5 f9 74 d6          	vpcmpeqb %xmm6,%xmm0,%xmm2
    1931:	c5 f9 74 c4          	vpcmpeqb %xmm4,%xmm0,%xmm0
    1935:	c5 f9 db c3          	vpand  %xmm3,%xmm0,%xmm0
    1939:	c5 e9 db d3          	vpand  %xmm3,%xmm2,%xmm2
    193d:	c5 f1 db c8          	vpand  %xmm0,%xmm1,%xmm1
    1941:	c5 f1 eb ca          	vpor   %xmm2,%xmm1,%xmm1
    1945:	c5 fa 7f 0a          	vmovdqu %xmm1,(%rdx)
    1949:	c4 c1 7a 6f 11       	vmovdqu (%r9),%xmm2
    194e:	c5 fa 6f 2f          	vmovdqu (%rdi),%xmm5
    1952:	c5 fa 6f 0e          	vmovdqu (%rsi),%xmm1
    1956:	c4 c1 51 fc 44 02 ff 	vpaddb -0x1(%r10,%rax,1),%xmm5,%xmm0
    195d:	44 89 c0             	mov    %r8d,%eax
    1960:	c5 e9 fc fa          	vpaddb %xmm2,%xmm2,%xmm7
    1964:	83 e0 f0             	and    $0xfffffff0,%eax
    1967:	c5 f9 fc c7          	vpaddb %xmm7,%xmm0,%xmm0
    196b:	c5 d1 fc f9          	vpaddb %xmm1,%xmm5,%xmm7
    196f:	01 c1                	add    %eax,%ecx
    1971:	c5 e9 fc d1          	vpaddb %xmm1,%xmm2,%xmm2
    1975:	c5 f9 fc c7          	vpaddb %xmm7,%xmm0,%xmm0
    1979:	c5 f9 fc c2          	vpaddb %xmm2,%xmm0,%xmm0
    197d:	c5 f9 74 ce          	vpcmpeqb %xmm6,%xmm0,%xmm1
    1981:	c5 f9 74 c4          	vpcmpeqb %xmm4,%xmm0,%xmm0
    1985:	c5 f9 db c3          	vpand  %xmm3,%xmm0,%xmm0
    1989:	c5 f1 db cb          	vpand  %xmm3,%xmm1,%xmm1
    198d:	c5 d1 db c0          	vpand  %xmm0,%xmm5,%xmm0
    1991:	c5 f9 eb c1          	vpor   %xmm1,%xmm0,%xmm0
    1995:	c5 fa 7f 02          	vmovdqu %xmm0,(%rdx)
    1999:	41 39 c0             	cmp    %eax,%r8d
    199c:	74 6f                	je     1a0d <calculate_left_right+0x28d>
    199e:	48 63 c9             	movslq %ecx,%rcx
    19a1:	8b 74 24 a4          	mov    -0x5c(%rsp),%esi
    19a5:	49 8d 14 0a          	lea    (%r10,%rcx,1),%rdx
    19a9:	0f 1f 80 00 00 00 00 	nopl   0x0(%rax)
    19b0:	0f b6 42 01          	movzbl 0x1(%rdx),%eax
    19b4:	44 0f b6 02          	movzbl (%rdx),%r8d
    19b8:	8d 04 40             	lea    (%rax,%rax,2),%eax
    19bb:	42 8d 04 40          	lea    (%rax,%r8,2),%eax
    19bf:	02 42 ff             	add    -0x1(%rdx),%al
    19c2:	02 42 02             	add    0x2(%rdx),%al
    19c5:	02 42 ff             	add    -0x1(%rdx),%al
    19c8:	3c 02                	cmp    $0x2,%al
    19ca:	40 0f 94 c7          	sete   %dil
    19ce:	44 21 c7             	and    %r8d,%edi
    19d1:	3c 03                	cmp    $0x3,%al
    19d3:	0f 94 c0             	sete   %al
    19d6:	09 f8                	or     %edi,%eax
    19d8:	88 04 0b             	mov    %al,(%rbx,%rcx,1)
    19db:	0f b6 7a fe          	movzbl -0x2(%rdx),%edi
    19df:	0f b6 42 ff          	movzbl -0x1(%rdx),%eax
    19e3:	02 02                	add    (%rdx),%al
    19e5:	02 42 01             	add    0x1(%rdx),%al
    19e8:	8d 04 47             	lea    (%rdi,%rax,2),%eax
    19eb:	02 42 ff             	add    -0x1(%rdx),%al
    19ee:	3c 02                	cmp    $0x2,%al
    19f0:	40 0f 94 c7          	sete   %dil
    19f4:	40 22 3a             	and    (%rdx),%dil
    19f7:	3c 03                	cmp    $0x3,%al
    19f9:	0f 94 c0             	sete   %al
    19fc:	48 83 c2 01          	add    $0x1,%rdx
    1a00:	09 f8                	or     %edi,%eax
    1a02:	88 04 0b             	mov    %al,(%rbx,%rcx,1)
    1a05:	48 83 c1 01          	add    $0x1,%rcx
    1a09:	39 ce                	cmp    %ecx,%esi
    1a0b:	7f a3                	jg     19b0 <calculate_left_right+0x230>
    1a0d:	48 8d 65 d8          	lea    -0x28(%rbp),%rsp
    1a11:	5b                   	pop    %rbx
    1a12:	41 5c                	pop    %r12
    1a14:	41 5d                	pop    %r13
    1a16:	41 5e                	pop    %r14
    1a18:	41 5f                	pop    %r15
    1a1a:	5d                   	pop    %rbp
    1a1b:	c3                   	ret    
    1a1c:	0f 1f 40 00          	nopl   0x0(%rax)
    1a20:	83 e9 01             	sub    $0x1,%ecx
    1a23:	83 e8 02             	sub    $0x2,%eax
    1a26:	89 4c 24 9c          	mov    %ecx,-0x64(%rsp)
    1a2a:	83 f8 1e             	cmp    $0x1e,%eax
    1a2d:	0f 86 63 59 00 00    	jbe    7396 <calculate_left_right+0x5c16>
    1a33:	4b 8d 04 3f          	lea    (%r15,%r15,1),%rax
    1a37:	4e 8d 34 3b          	lea    (%rbx,%r15,1),%r14
    1a3b:	c1 e9 05             	shr    $0x5,%ecx
    1a3e:	48 89 5c 24 90       	mov    %rbx,-0x70(%rsp)
    1a43:	4a 8d 14 38          	lea    (%rax,%r15,1),%rdx
    1a47:	49 8d 7c 02 fe       	lea    -0x2(%r10,%rax,1),%rdi
    1a4c:	48 83 e8 01          	sub    $0x1,%rax
    1a50:	4c 89 b4 24 38 07 00 	mov    %r14,0x738(%rsp)
    1a57:	00 
    1a58:	4d 8d 5c 12 fe       	lea    -0x2(%r10,%rdx,1),%r11
    1a5d:	49 8d 54 12 ff       	lea    -0x1(%r10,%rdx,1),%rdx
    1a62:	89 4c 24 a0          	mov    %ecx,-0x60(%rsp)
    1a66:	c5 fd 6f 25 92 7a 00 	vmovdqa 0x7a92(%rip),%ymm4        # 9500 <_IO_stdin_used+0x500>
    1a6d:	00 
    1a6e:	4f 8d 74 3a ff       	lea    -0x1(%r10,%r15,1),%r14
    1a73:	48 89 94 24 10 07 00 	mov    %rdx,0x710(%rsp)
    1a7a:	00 
    1a7b:	49 8d 14 02          	lea    (%r10,%rax,1),%rdx
    1a7f:	48 01 d8             	add    %rbx,%rax
    1a82:	4a 8d 4c 3e fe       	lea    -0x2(%rsi,%r15,1),%rcx
    1a87:	48 89 bc 24 68 07 00 	mov    %rdi,0x768(%rsp)
    1a8e:	00 
    1a8f:	4c 89 fe             	mov    %r15,%rsi
    1a92:	c5 fd 6f 15 86 7a 00 	vmovdqa 0x7a86(%rip),%ymm2        # 9520 <_IO_stdin_used+0x520>
    1a99:	00 
    1a9a:	4c 89 9c 24 48 07 00 	mov    %r11,0x748(%rsp)
    1aa1:	00 
    1aa2:	48 c1 e6 05          	shl    $0x5,%rsi
    1aa6:	c5 fd 6f 1d 92 7a 00 	vmovdqa 0x7a92(%rip),%ymm3        # 9540 <_IO_stdin_used+0x540>
    1aad:	00 
    1aae:	4c 89 b4 24 20 07 00 	mov    %r14,0x720(%rsp)
    1ab5:	00 
    1ab6:	48 89 94 24 f8 06 00 	mov    %rdx,0x6f8(%rsp)
    1abd:	00 
    1abe:	48 89 84 24 d8 06 00 	mov    %rax,0x6d8(%rsp)
    1ac5:	00 
    1ac6:	48 89 94 24 f0 06 00 	mov    %rdx,0x6f0(%rsp)
    1acd:	00 
    1ace:	4c 89 b4 24 00 07 00 	mov    %r14,0x700(%rsp)
    1ad5:	00 
    1ad6:	4c 89 94 24 08 07 00 	mov    %r10,0x708(%rsp)
    1add:	00 
    1ade:	4c 89 9c 24 18 07 00 	mov    %r11,0x718(%rsp)
    1ae5:	00 
    1ae6:	48 89 bc 24 30 07 00 	mov    %rdi,0x730(%rsp)
    1aed:	00 
    1aee:	48 89 bc 24 50 07 00 	mov    %rdi,0x750(%rsp)
    1af5:	00 
    1af6:	48 89 bc 24 60 07 00 	mov    %rdi,0x760(%rsp)
    1afd:	00 
    1afe:	4c 89 94 24 70 07 00 	mov    %r10,0x770(%rsp)
    1b05:	00 
    1b06:	4c 89 94 24 78 07 00 	mov    %r10,0x778(%rsp)
    1b0d:	00 
    1b0e:	c7 84 24 e8 06 00 00 	movl   $0x0,0x6e8(%rsp)
    1b15:	00 00 00 00 
    1b19:	4c 89 54 24 88       	mov    %r10,-0x78(%rsp)
    1b1e:	48 89 8c 24 80 07 00 	mov    %rcx,0x780(%rsp)
    1b25:	00 
    1b26:	48 89 8c 24 28 07 00 	mov    %rcx,0x728(%rsp)
    1b2d:	00 
    1b2e:	48 89 8c 24 40 07 00 	mov    %rcx,0x740(%rsp)
    1b35:	00 
    1b36:	48 89 8c 24 58 07 00 	mov    %rcx,0x758(%rsp)
    1b3d:	00 
    1b3e:	48 89 f1             	mov    %rsi,%rcx
    1b41:	0f 1f 80 00 00 00 00 	nopl   0x0(%rax)
    1b48:	48 8b 84 24 80 07 00 	mov    0x780(%rsp),%rax
    1b4f:	00 
    1b50:	4e 8d 34 38          	lea    (%rax,%r15,1),%r14
    1b54:	4f 8d 2c 3e          	lea    (%r14,%r15,1),%r13
    1b58:	4f 8d 64 3d 00       	lea    0x0(%r13,%r15,1),%r12
    1b5d:	4b 8d 1c 3c          	lea    (%r12,%r15,1),%rbx
    1b61:	4e 8d 1c 3b          	lea    (%rbx,%r15,1),%r11
    1b65:	4f 8d 14 3b          	lea    (%r11,%r15,1),%r10
    1b69:	4f 8d 0c 3a          	lea    (%r10,%r15,1),%r9
    1b6d:	4f 8d 04 39          	lea    (%r9,%r15,1),%r8
    1b71:	4b 8d 3c 38          	lea    (%r8,%r15,1),%rdi
    1b75:	4a 8d 34 3f          	lea    (%rdi,%r15,1),%rsi
    1b79:	4a 8d 04 3e          	lea    (%rsi,%r15,1),%rax
    1b7d:	4a 8d 14 38          	lea    (%rax,%r15,1),%rdx
    1b81:	48 89 84 24 d0 06 00 	mov    %rax,0x6d0(%rsp)
    1b88:	00 
    1b89:	4a 8d 04 3a          	lea    (%rdx,%r15,1),%rax
    1b8d:	48 89 84 24 c8 06 00 	mov    %rax,0x6c8(%rsp)
    1b94:	00 
    1b95:	4c 01 f8             	add    %r15,%rax
    1b98:	48 89 84 24 c0 06 00 	mov    %rax,0x6c0(%rsp)
    1b9f:	00 
    1ba0:	4c 01 f8             	add    %r15,%rax
    1ba3:	48 89 84 24 b8 06 00 	mov    %rax,0x6b8(%rsp)
    1baa:	00 
    1bab:	4c 01 f8             	add    %r15,%rax
    1bae:	48 89 84 24 b0 06 00 	mov    %rax,0x6b0(%rsp)
    1bb5:	00 
    1bb6:	4c 01 f8             	add    %r15,%rax
    1bb9:	48 89 84 24 a8 06 00 	mov    %rax,0x6a8(%rsp)
    1bc0:	00 
    1bc1:	4c 01 f8             	add    %r15,%rax
    1bc4:	48 89 84 24 a0 06 00 	mov    %rax,0x6a0(%rsp)
    1bcb:	00 
    1bcc:	4c 01 f8             	add    %r15,%rax
    1bcf:	48 89 84 24 98 06 00 	mov    %rax,0x698(%rsp)
    1bd6:	00 
    1bd7:	4c 01 f8             	add    %r15,%rax
    1bda:	48 89 84 24 90 06 00 	mov    %rax,0x690(%rsp)
    1be1:	00 
    1be2:	4c 01 f8             	add    %r15,%rax
    1be5:	48 89 84 24 88 06 00 	mov    %rax,0x688(%rsp)
    1bec:	00 
    1bed:	4c 01 f8             	add    %r15,%rax
    1bf0:	48 89 84 24 80 06 00 	mov    %rax,0x680(%rsp)
    1bf7:	00 
    1bf8:	4c 01 f8             	add    %r15,%rax
    1bfb:	48 89 84 24 78 06 00 	mov    %rax,0x678(%rsp)
    1c02:	00 
    1c03:	4c 01 f8             	add    %r15,%rax
    1c06:	48 89 84 24 70 06 00 	mov    %rax,0x670(%rsp)
    1c0d:	00 
    1c0e:	4c 01 f8             	add    %r15,%rax
    1c11:	48 89 84 24 68 06 00 	mov    %rax,0x668(%rsp)
    1c18:	00 
    1c19:	4c 01 f8             	add    %r15,%rax
    1c1c:	48 89 84 24 60 06 00 	mov    %rax,0x660(%rsp)
    1c23:	00 
    1c24:	4c 01 f8             	add    %r15,%rax
    1c27:	48 89 84 24 58 06 00 	mov    %rax,0x658(%rsp)
    1c2e:	00 
    1c2f:	4c 01 f8             	add    %r15,%rax
    1c32:	48 89 84 24 50 06 00 	mov    %rax,0x650(%rsp)
    1c39:	00 
    1c3a:	4c 01 f8             	add    %r15,%rax
    1c3d:	48 89 84 24 48 06 00 	mov    %rax,0x648(%rsp)
    1c44:	00 
    1c45:	4c 01 f8             	add    %r15,%rax
    1c48:	48 89 84 24 40 06 00 	mov    %rax,0x640(%rsp)
    1c4f:	00 
    1c50:	48 8b 84 24 78 07 00 	mov    0x778(%rsp),%rax
    1c57:	00 
    1c58:	4c 01 f8             	add    %r15,%rax
    1c5b:	48 89 84 24 38 06 00 	mov    %rax,0x638(%rsp)
    1c62:	00 
    1c63:	4c 01 f8             	add    %r15,%rax
    1c66:	48 89 84 24 30 06 00 	mov    %rax,0x630(%rsp)
    1c6d:	00 
    1c6e:	4c 01 f8             	add    %r15,%rax
    1c71:	48 89 84 24 28 06 00 	mov    %rax,0x628(%rsp)
    1c78:	00 
    1c79:	4c 01 f8             	add    %r15,%rax
    1c7c:	48 89 84 24 20 06 00 	mov    %rax,0x620(%rsp)
    1c83:	00 
    1c84:	4c 01 f8             	add    %r15,%rax
    1c87:	48 89 84 24 18 06 00 	mov    %rax,0x618(%rsp)
    1c8e:	00 
    1c8f:	4c 01 f8             	add    %r15,%rax
    1c92:	48 89 84 24 10 06 00 	mov    %rax,0x610(%rsp)
    1c99:	00 
    1c9a:	4c 01 f8             	add    %r15,%rax
    1c9d:	48 89 84 24 08 06 00 	mov    %rax,0x608(%rsp)
    1ca4:	00 
    1ca5:	4c 01 f8             	add    %r15,%rax
    1ca8:	48 89 84 24 00 06 00 	mov    %rax,0x600(%rsp)
    1caf:	00 
    1cb0:	4c 01 f8             	add    %r15,%rax
    1cb3:	48 89 84 24 f8 05 00 	mov    %rax,0x5f8(%rsp)
    1cba:	00 
    1cbb:	4c 01 f8             	add    %r15,%rax
    1cbe:	48 89 84 24 f0 05 00 	mov    %rax,0x5f0(%rsp)
    1cc5:	00 
    1cc6:	4c 01 f8             	add    %r15,%rax
    1cc9:	48 89 84 24 e8 05 00 	mov    %rax,0x5e8(%rsp)
    1cd0:	00 
    1cd1:	4c 01 f8             	add    %r15,%rax
    1cd4:	48 89 84 24 e0 05 00 	mov    %rax,0x5e0(%rsp)
    1cdb:	00 
    1cdc:	4c 01 f8             	add    %r15,%rax
    1cdf:	48 89 84 24 d8 05 00 	mov    %rax,0x5d8(%rsp)
    1ce6:	00 
    1ce7:	4c 01 f8             	add    %r15,%rax
    1cea:	48 89 84 24 d0 05 00 	mov    %rax,0x5d0(%rsp)
    1cf1:	00 
    1cf2:	4c 01 f8             	add    %r15,%rax
    1cf5:	48 89 84 24 c8 05 00 	mov    %rax,0x5c8(%rsp)
    1cfc:	00 
    1cfd:	4c 01 f8             	add    %r15,%rax
    1d00:	48 89 84 24 c0 05 00 	mov    %rax,0x5c0(%rsp)
    1d07:	00 
    1d08:	4c 01 f8             	add    %r15,%rax
    1d0b:	48 89 84 24 b8 05 00 	mov    %rax,0x5b8(%rsp)
    1d12:	00 
    1d13:	4c 01 f8             	add    %r15,%rax
    1d16:	48 89 84 24 b0 05 00 	mov    %rax,0x5b0(%rsp)
    1d1d:	00 
    1d1e:	4c 01 f8             	add    %r15,%rax
    1d21:	48 89 84 24 a8 05 00 	mov    %rax,0x5a8(%rsp)
    1d28:	00 
    1d29:	4c 01 f8             	add    %r15,%rax
    1d2c:	48 89 84 24 a0 05 00 	mov    %rax,0x5a0(%rsp)
    1d33:	00 
    1d34:	4c 01 f8             	add    %r15,%rax
    1d37:	48 89 84 24 98 05 00 	mov    %rax,0x598(%rsp)
    1d3e:	00 
    1d3f:	4c 01 f8             	add    %r15,%rax
    1d42:	48 89 84 24 90 05 00 	mov    %rax,0x590(%rsp)
    1d49:	00 
    1d4a:	4c 01 f8             	add    %r15,%rax
    1d4d:	48 89 84 24 88 05 00 	mov    %rax,0x588(%rsp)
    1d54:	00 
    1d55:	4c 01 f8             	add    %r15,%rax
    1d58:	48 89 84 24 80 05 00 	mov    %rax,0x580(%rsp)
    1d5f:	00 
    1d60:	4c 01 f8             	add    %r15,%rax
    1d63:	48 89 84 24 78 05 00 	mov    %rax,0x578(%rsp)
    1d6a:	00 
    1d6b:	4c 01 f8             	add    %r15,%rax
    1d6e:	48 89 84 24 70 05 00 	mov    %rax,0x570(%rsp)
    1d75:	00 
    1d76:	4c 01 f8             	add    %r15,%rax
    1d79:	48 89 84 24 68 05 00 	mov    %rax,0x568(%rsp)
    1d80:	00 
    1d81:	4c 01 f8             	add    %r15,%rax
    1d84:	48 89 84 24 60 05 00 	mov    %rax,0x560(%rsp)
    1d8b:	00 
    1d8c:	4c 01 f8             	add    %r15,%rax
    1d8f:	48 89 84 24 58 05 00 	mov    %rax,0x558(%rsp)
    1d96:	00 
    1d97:	4c 01 f8             	add    %r15,%rax
    1d9a:	48 89 84 24 50 05 00 	mov    %rax,0x550(%rsp)
    1da1:	00 
    1da2:	48 8b 84 24 70 07 00 	mov    0x770(%rsp),%rax
    1da9:	00 
    1daa:	4c 01 f8             	add    %r15,%rax
    1dad:	48 89 84 24 48 05 00 	mov    %rax,0x548(%rsp)
    1db4:	00 
    1db5:	4c 01 f8             	add    %r15,%rax
    1db8:	48 89 84 24 40 05 00 	mov    %rax,0x540(%rsp)
    1dbf:	00 
    1dc0:	4c 01 f8             	add    %r15,%rax
    1dc3:	48 89 84 24 38 05 00 	mov    %rax,0x538(%rsp)
    1dca:	00 
    1dcb:	4c 01 f8             	add    %r15,%rax
    1dce:	48 89 84 24 30 05 00 	mov    %rax,0x530(%rsp)
    1dd5:	00 
    1dd6:	4c 01 f8             	add    %r15,%rax
    1dd9:	48 89 84 24 28 05 00 	mov    %rax,0x528(%rsp)
    1de0:	00 
    1de1:	4c 01 f8             	add    %r15,%rax
    1de4:	48 89 84 24 20 05 00 	mov    %rax,0x520(%rsp)
    1deb:	00 
    1dec:	4c 01 f8             	add    %r15,%rax
    1def:	48 89 84 24 18 05 00 	mov    %rax,0x518(%rsp)
    1df6:	00 
    1df7:	4c 01 f8             	add    %r15,%rax
    1dfa:	48 89 84 24 10 05 00 	mov    %rax,0x510(%rsp)
    1e01:	00 
    1e02:	4c 01 f8             	add    %r15,%rax
    1e05:	48 89 84 24 08 05 00 	mov    %rax,0x508(%rsp)
    1e0c:	00 
    1e0d:	4c 01 f8             	add    %r15,%rax
    1e10:	48 89 84 24 00 05 00 	mov    %rax,0x500(%rsp)
    1e17:	00 
    1e18:	4c 01 f8             	add    %r15,%rax
    1e1b:	48 89 84 24 f8 04 00 	mov    %rax,0x4f8(%rsp)
    1e22:	00 
    1e23:	4c 01 f8             	add    %r15,%rax
    1e26:	48 89 84 24 f0 04 00 	mov    %rax,0x4f0(%rsp)
    1e2d:	00 
    1e2e:	4c 01 f8             	add    %r15,%rax
    1e31:	48 89 84 24 e8 04 00 	mov    %rax,0x4e8(%rsp)
    1e38:	00 
    1e39:	4c 01 f8             	add    %r15,%rax
    1e3c:	48 89 84 24 e0 04 00 	mov    %rax,0x4e0(%rsp)
    1e43:	00 
    1e44:	4c 01 f8             	add    %r15,%rax
    1e47:	48 89 84 24 d8 04 00 	mov    %rax,0x4d8(%rsp)
    1e4e:	00 
    1e4f:	4c 01 f8             	add    %r15,%rax
    1e52:	48 89 84 24 d0 04 00 	mov    %rax,0x4d0(%rsp)
    1e59:	00 
    1e5a:	4c 01 f8             	add    %r15,%rax
    1e5d:	48 89 84 24 c8 04 00 	mov    %rax,0x4c8(%rsp)
    1e64:	00 
    1e65:	4c 01 f8             	add    %r15,%rax
    1e68:	48 89 84 24 c0 04 00 	mov    %rax,0x4c0(%rsp)
    1e6f:	00 
    1e70:	4c 01 f8             	add    %r15,%rax
    1e73:	48 89 84 24 b8 04 00 	mov    %rax,0x4b8(%rsp)
    1e7a:	00 
    1e7b:	4c 01 f8             	add    %r15,%rax
    1e7e:	48 89 84 24 b0 04 00 	mov    %rax,0x4b0(%rsp)
    1e85:	00 
    1e86:	4c 01 f8             	add    %r15,%rax
    1e89:	48 89 84 24 a8 04 00 	mov    %rax,0x4a8(%rsp)
    1e90:	00 
    1e91:	4c 01 f8             	add    %r15,%rax
    1e94:	48 89 84 24 a0 04 00 	mov    %rax,0x4a0(%rsp)
    1e9b:	00 
    1e9c:	4c 01 f8             	add    %r15,%rax
    1e9f:	48 89 84 24 98 04 00 	mov    %rax,0x498(%rsp)
    1ea6:	00 
    1ea7:	4c 01 f8             	add    %r15,%rax
    1eaa:	48 89 84 24 90 04 00 	mov    %rax,0x490(%rsp)
    1eb1:	00 
    1eb2:	4c 01 f8             	add    %r15,%rax
    1eb5:	48 89 84 24 88 04 00 	mov    %rax,0x488(%rsp)
    1ebc:	00 
    1ebd:	4c 01 f8             	add    %r15,%rax
    1ec0:	48 89 84 24 80 04 00 	mov    %rax,0x480(%rsp)
    1ec7:	00 
    1ec8:	4c 01 f8             	add    %r15,%rax
    1ecb:	48 89 84 24 78 04 00 	mov    %rax,0x478(%rsp)
    1ed2:	00 
    1ed3:	4c 01 f8             	add    %r15,%rax
    1ed6:	48 89 84 24 70 04 00 	mov    %rax,0x470(%rsp)
    1edd:	00 
    1ede:	4c 01 f8             	add    %r15,%rax
    1ee1:	48 89 84 24 68 04 00 	mov    %rax,0x468(%rsp)
    1ee8:	00 
    1ee9:	4c 01 f8             	add    %r15,%rax
    1eec:	48 89 84 24 60 04 00 	mov    %rax,0x460(%rsp)
    1ef3:	00 
    1ef4:	48 8b 84 24 68 07 00 	mov    0x768(%rsp),%rax
    1efb:	00 
    1efc:	4c 01 f8             	add    %r15,%rax
    1eff:	48 89 84 24 58 04 00 	mov    %rax,0x458(%rsp)
    1f06:	00 
    1f07:	4c 01 f8             	add    %r15,%rax
    1f0a:	48 89 84 24 50 04 00 	mov    %rax,0x450(%rsp)
    1f11:	00 
    1f12:	4c 01 f8             	add    %r15,%rax
    1f15:	48 89 84 24 48 04 00 	mov    %rax,0x448(%rsp)
    1f1c:	00 
    1f1d:	4c 01 f8             	add    %r15,%rax
    1f20:	48 89 84 24 40 04 00 	mov    %rax,0x440(%rsp)
    1f27:	00 
    1f28:	4c 01 f8             	add    %r15,%rax
    1f2b:	48 89 84 24 38 04 00 	mov    %rax,0x438(%rsp)
    1f32:	00 
    1f33:	4c 01 f8             	add    %r15,%rax
    1f36:	48 89 84 24 30 04 00 	mov    %rax,0x430(%rsp)
    1f3d:	00 
    1f3e:	4c 01 f8             	add    %r15,%rax
    1f41:	48 89 84 24 28 04 00 	mov    %rax,0x428(%rsp)
    1f48:	00 
    1f49:	4c 01 f8             	add    %r15,%rax
    1f4c:	48 89 84 24 20 04 00 	mov    %rax,0x420(%rsp)
    1f53:	00 
    1f54:	4c 01 f8             	add    %r15,%rax
    1f57:	48 89 84 24 18 04 00 	mov    %rax,0x418(%rsp)
    1f5e:	00 
    1f5f:	4c 01 f8             	add    %r15,%rax
    1f62:	48 89 84 24 10 04 00 	mov    %rax,0x410(%rsp)
    1f69:	00 
    1f6a:	4c 01 f8             	add    %r15,%rax
    1f6d:	48 89 84 24 08 04 00 	mov    %rax,0x408(%rsp)
    1f74:	00 
    1f75:	4c 01 f8             	add    %r15,%rax
    1f78:	48 89 84 24 00 04 00 	mov    %rax,0x400(%rsp)
    1f7f:	00 
    1f80:	4c 01 f8             	add    %r15,%rax
    1f83:	48 89 84 24 f8 03 00 	mov    %rax,0x3f8(%rsp)
    1f8a:	00 
    1f8b:	4c 01 f8             	add    %r15,%rax
    1f8e:	48 89 84 24 f0 03 00 	mov    %rax,0x3f0(%rsp)
    1f95:	00 
    1f96:	4c 01 f8             	add    %r15,%rax
    1f99:	48 89 84 24 e8 03 00 	mov    %rax,0x3e8(%rsp)
    1fa0:	00 
    1fa1:	4c 01 f8             	add    %r15,%rax
    1fa4:	48 89 84 24 e0 03 00 	mov    %rax,0x3e0(%rsp)
    1fab:	00 
    1fac:	4c 01 f8             	add    %r15,%rax
    1faf:	48 89 84 24 d8 03 00 	mov    %rax,0x3d8(%rsp)
    1fb6:	00 
    1fb7:	4c 01 f8             	add    %r15,%rax
    1fba:	48 89 84 24 d0 03 00 	mov    %rax,0x3d0(%rsp)
    1fc1:	00 
    1fc2:	4c 01 f8             	add    %r15,%rax
    1fc5:	48 89 84 24 c8 03 00 	mov    %rax,0x3c8(%rsp)
    1fcc:	00 
    1fcd:	4c 01 f8             	add    %r15,%rax
    1fd0:	48 89 84 24 c0 03 00 	mov    %rax,0x3c0(%rsp)
    1fd7:	00 
    1fd8:	4c 01 f8             	add    %r15,%rax
    1fdb:	48 89 84 24 b8 03 00 	mov    %rax,0x3b8(%rsp)
    1fe2:	00 
    1fe3:	4c 01 f8             	add    %r15,%rax
    1fe6:	48 89 84 24 b0 03 00 	mov    %rax,0x3b0(%rsp)
    1fed:	00 
    1fee:	4c 01 f8             	add    %r15,%rax
    1ff1:	48 89 84 24 a8 03 00 	mov    %rax,0x3a8(%rsp)
    1ff8:	00 
    1ff9:	4c 01 f8             	add    %r15,%rax
    1ffc:	48 89 84 24 a0 03 00 	mov    %rax,0x3a0(%rsp)
    2003:	00 
    2004:	4c 01 f8             	add    %r15,%rax
    2007:	48 89 84 24 98 03 00 	mov    %rax,0x398(%rsp)
    200e:	00 
    200f:	4c 01 f8             	add    %r15,%rax
    2012:	48 89 84 24 90 03 00 	mov    %rax,0x390(%rsp)
    2019:	00 
    201a:	4c 01 f8             	add    %r15,%rax
    201d:	48 89 84 24 88 03 00 	mov    %rax,0x388(%rsp)
    2024:	00 
    2025:	4c 01 f8             	add    %r15,%rax
    2028:	48 89 84 24 80 03 00 	mov    %rax,0x380(%rsp)
    202f:	00 
    2030:	4c 01 f8             	add    %r15,%rax
    2033:	48 89 84 24 78 03 00 	mov    %rax,0x378(%rsp)
    203a:	00 
    203b:	4c 01 f8             	add    %r15,%rax
    203e:	48 89 84 24 70 03 00 	mov    %rax,0x370(%rsp)
    2045:	00 
    2046:	48 8b 84 24 60 07 00 	mov    0x760(%rsp),%rax
    204d:	00 
    204e:	4c 01 f8             	add    %r15,%rax
    2051:	48 89 84 24 68 03 00 	mov    %rax,0x368(%rsp)
    2058:	00 
    2059:	4c 01 f8             	add    %r15,%rax
    205c:	48 89 84 24 60 03 00 	mov    %rax,0x360(%rsp)
    2063:	00 
    2064:	4c 01 f8             	add    %r15,%rax
    2067:	48 89 84 24 58 03 00 	mov    %rax,0x358(%rsp)
    206e:	00 
    206f:	4c 01 f8             	add    %r15,%rax
    2072:	48 89 84 24 50 03 00 	mov    %rax,0x350(%rsp)
    2079:	00 
    207a:	4c 01 f8             	add    %r15,%rax
    207d:	48 89 84 24 48 03 00 	mov    %rax,0x348(%rsp)
    2084:	00 
    2085:	4c 01 f8             	add    %r15,%rax
    2088:	48 89 84 24 40 03 00 	mov    %rax,0x340(%rsp)
    208f:	00 
    2090:	4c 01 f8             	add    %r15,%rax
    2093:	48 89 84 24 38 03 00 	mov    %rax,0x338(%rsp)
    209a:	00 
    209b:	4c 01 f8             	add    %r15,%rax
    209e:	48 89 84 24 30 03 00 	mov    %rax,0x330(%rsp)
    20a5:	00 
    20a6:	4c 01 f8             	add    %r15,%rax
    20a9:	48 89 84 24 28 03 00 	mov    %rax,0x328(%rsp)
    20b0:	00 
    20b1:	4c 01 f8             	add    %r15,%rax
    20b4:	48 89 84 24 20 03 00 	mov    %rax,0x320(%rsp)
    20bb:	00 
    20bc:	4c 01 f8             	add    %r15,%rax
    20bf:	48 89 84 24 18 03 00 	mov    %rax,0x318(%rsp)
    20c6:	00 
    20c7:	4c 01 f8             	add    %r15,%rax
    20ca:	48 89 84 24 10 03 00 	mov    %rax,0x310(%rsp)
    20d1:	00 
    20d2:	4c 01 f8             	add    %r15,%rax
    20d5:	48 89 84 24 08 03 00 	mov    %rax,0x308(%rsp)
    20dc:	00 
    20dd:	4c 01 f8             	add    %r15,%rax
    20e0:	48 89 84 24 00 03 00 	mov    %rax,0x300(%rsp)
    20e7:	00 
    20e8:	4c 01 f8             	add    %r15,%rax
    20eb:	48 89 84 24 f8 02 00 	mov    %rax,0x2f8(%rsp)
    20f2:	00 
    20f3:	4c 01 f8             	add    %r15,%rax
    20f6:	48 89 84 24 f0 02 00 	mov    %rax,0x2f0(%rsp)
    20fd:	00 
    20fe:	4c 01 f8             	add    %r15,%rax
    2101:	48 89 84 24 e8 02 00 	mov    %rax,0x2e8(%rsp)
    2108:	00 
    2109:	4c 01 f8             	add    %r15,%rax
    210c:	48 89 84 24 e0 02 00 	mov    %rax,0x2e0(%rsp)
    2113:	00 
    2114:	4c 01 f8             	add    %r15,%rax
    2117:	48 89 84 24 d8 02 00 	mov    %rax,0x2d8(%rsp)
    211e:	00 
    211f:	4c 01 f8             	add    %r15,%rax
    2122:	48 89 84 24 d0 02 00 	mov    %rax,0x2d0(%rsp)
    2129:	00 
    212a:	4c 01 f8             	add    %r15,%rax
    212d:	48 89 84 24 c8 02 00 	mov    %rax,0x2c8(%rsp)
    2134:	00 
    2135:	4c 01 f8             	add    %r15,%rax
    2138:	48 89 84 24 c0 02 00 	mov    %rax,0x2c0(%rsp)
    213f:	00 
    2140:	4c 01 f8             	add    %r15,%rax
    2143:	48 89 84 24 b8 02 00 	mov    %rax,0x2b8(%rsp)
    214a:	00 
    214b:	4c 01 f8             	add    %r15,%rax
    214e:	48 89 84 24 b0 02 00 	mov    %rax,0x2b0(%rsp)
    2155:	00 
    2156:	4c 01 f8             	add    %r15,%rax
    2159:	48 89 84 24 a8 02 00 	mov    %rax,0x2a8(%rsp)
    2160:	00 
    2161:	4c 01 f8             	add    %r15,%rax
    2164:	48 89 84 24 a0 02 00 	mov    %rax,0x2a0(%rsp)
    216b:	00 
    216c:	4c 01 f8             	add    %r15,%rax
    216f:	48 89 84 24 98 02 00 	mov    %rax,0x298(%rsp)
    2176:	00 
    2177:	4c 01 f8             	add    %r15,%rax
    217a:	48 89 84 24 90 02 00 	mov    %rax,0x290(%rsp)
    2181:	00 
    2182:	4c 01 f8             	add    %r15,%rax
    2185:	48 89 84 24 88 02 00 	mov    %rax,0x288(%rsp)
    218c:	00 
    218d:	4c 01 f8             	add    %r15,%rax
    2190:	48 89 84 24 80 02 00 	mov    %rax,0x280(%rsp)
    2197:	00 
    2198:	48 8b 84 24 58 07 00 	mov    0x758(%rsp),%rax
    219f:	00 
    21a0:	4c 01 f8             	add    %r15,%rax
    21a3:	48 89 84 24 78 02 00 	mov    %rax,0x278(%rsp)
    21aa:	00 
    21ab:	4c 01 f8             	add    %r15,%rax
    21ae:	48 89 84 24 70 02 00 	mov    %rax,0x270(%rsp)
    21b5:	00 
    21b6:	4c 01 f8             	add    %r15,%rax
    21b9:	48 89 84 24 68 02 00 	mov    %rax,0x268(%rsp)
    21c0:	00 
    21c1:	4c 01 f8             	add    %r15,%rax
    21c4:	48 89 84 24 60 02 00 	mov    %rax,0x260(%rsp)
    21cb:	00 
    21cc:	4c 01 f8             	add    %r15,%rax
    21cf:	48 89 84 24 58 02 00 	mov    %rax,0x258(%rsp)
    21d6:	00 
    21d7:	4c 01 f8             	add    %r15,%rax
    21da:	48 89 84 24 50 02 00 	mov    %rax,0x250(%rsp)
    21e1:	00 
    21e2:	4c 01 f8             	add    %r15,%rax
    21e5:	48 89 84 24 48 02 00 	mov    %rax,0x248(%rsp)
    21ec:	00 
    21ed:	4c 01 f8             	add    %r15,%rax
    21f0:	48 89 84 24 40 02 00 	mov    %rax,0x240(%rsp)
    21f7:	00 
    21f8:	4c 01 f8             	add    %r15,%rax
    21fb:	48 89 84 24 38 02 00 	mov    %rax,0x238(%rsp)
    2202:	00 
    2203:	4c 01 f8             	add    %r15,%rax
    2206:	48 89 84 24 30 02 00 	mov    %rax,0x230(%rsp)
    220d:	00 
    220e:	4c 01 f8             	add    %r15,%rax
    2211:	48 89 84 24 28 02 00 	mov    %rax,0x228(%rsp)
    2218:	00 
    2219:	4c 01 f8             	add    %r15,%rax
    221c:	48 89 84 24 20 02 00 	mov    %rax,0x220(%rsp)
    2223:	00 
    2224:	4c 01 f8             	add    %r15,%rax
    2227:	48 89 84 24 18 02 00 	mov    %rax,0x218(%rsp)
    222e:	00 
    222f:	4c 01 f8             	add    %r15,%rax
    2232:	48 89 84 24 10 02 00 	mov    %rax,0x210(%rsp)
    2239:	00 
    223a:	4c 01 f8             	add    %r15,%rax
    223d:	48 89 84 24 08 02 00 	mov    %rax,0x208(%rsp)
    2244:	00 
    2245:	4c 01 f8             	add    %r15,%rax
    2248:	48 89 84 24 00 02 00 	mov    %rax,0x200(%rsp)
    224f:	00 
    2250:	4c 01 f8             	add    %r15,%rax
    2253:	48 89 84 24 f8 01 00 	mov    %rax,0x1f8(%rsp)
    225a:	00 
    225b:	4c 01 f8             	add    %r15,%rax
    225e:	48 89 84 24 f0 01 00 	mov    %rax,0x1f0(%rsp)
    2265:	00 
    2266:	4c 01 f8             	add    %r15,%rax
    2269:	48 89 84 24 e8 01 00 	mov    %rax,0x1e8(%rsp)
    2270:	00 
    2271:	4c 01 f8             	add    %r15,%rax
    2274:	48 89 84 24 e0 01 00 	mov    %rax,0x1e0(%rsp)
    227b:	00 
    227c:	4c 01 f8             	add    %r15,%rax
    227f:	48 89 84 24 d8 01 00 	mov    %rax,0x1d8(%rsp)
    2286:	00 
    2287:	4c 01 f8             	add    %r15,%rax
    228a:	48 89 84 24 d0 01 00 	mov    %rax,0x1d0(%rsp)
    2291:	00 
    2292:	4c 01 f8             	add    %r15,%rax
    2295:	48 89 84 24 c8 01 00 	mov    %rax,0x1c8(%rsp)
    229c:	00 
    229d:	4c 01 f8             	add    %r15,%rax
    22a0:	48 89 84 24 c0 01 00 	mov    %rax,0x1c0(%rsp)
    22a7:	00 
    22a8:	4c 01 f8             	add    %r15,%rax
    22ab:	48 89 84 24 b8 01 00 	mov    %rax,0x1b8(%rsp)
    22b2:	00 
    22b3:	4c 01 f8             	add    %r15,%rax
    22b6:	48 89 84 24 b0 01 00 	mov    %rax,0x1b0(%rsp)
    22bd:	00 
    22be:	4c 01 f8             	add    %r15,%rax
    22c1:	48 89 84 24 a8 01 00 	mov    %rax,0x1a8(%rsp)
    22c8:	00 
    22c9:	4c 01 f8             	add    %r15,%rax
    22cc:	48 89 84 24 a0 01 00 	mov    %rax,0x1a0(%rsp)
    22d3:	00 
    22d4:	4c 01 f8             	add    %r15,%rax
    22d7:	48 89 84 24 98 01 00 	mov    %rax,0x198(%rsp)
    22de:	00 
    22df:	4c 01 f8             	add    %r15,%rax
    22e2:	48 89 84 24 90 01 00 	mov    %rax,0x190(%rsp)
    22e9:	00 
    22ea:	48 8b 84 24 50 07 00 	mov    0x750(%rsp),%rax
    22f1:	00 
    22f2:	4c 01 f8             	add    %r15,%rax
    22f5:	48 89 84 24 88 01 00 	mov    %rax,0x188(%rsp)
    22fc:	00 
    22fd:	4c 01 f8             	add    %r15,%rax
    2300:	48 89 84 24 80 01 00 	mov    %rax,0x180(%rsp)
    2307:	00 
    2308:	4c 01 f8             	add    %r15,%rax
    230b:	48 89 84 24 78 01 00 	mov    %rax,0x178(%rsp)
    2312:	00 
    2313:	4c 01 f8             	add    %r15,%rax
    2316:	48 89 84 24 70 01 00 	mov    %rax,0x170(%rsp)
    231d:	00 
    231e:	4c 01 f8             	add    %r15,%rax
    2321:	48 89 84 24 68 01 00 	mov    %rax,0x168(%rsp)
    2328:	00 
    2329:	4c 01 f8             	add    %r15,%rax
    232c:	48 89 84 24 60 01 00 	mov    %rax,0x160(%rsp)
    2333:	00 
    2334:	4c 01 f8             	add    %r15,%rax
    2337:	48 89 84 24 58 01 00 	mov    %rax,0x158(%rsp)
    233e:	00 
    233f:	4c 01 f8             	add    %r15,%rax
    2342:	48 89 84 24 50 01 00 	mov    %rax,0x150(%rsp)
    2349:	00 
    234a:	4c 01 f8             	add    %r15,%rax
    234d:	48 89 84 24 48 01 00 	mov    %rax,0x148(%rsp)
    2354:	00 
    2355:	4c 01 f8             	add    %r15,%rax
    2358:	48 89 84 24 40 01 00 	mov    %rax,0x140(%rsp)
    235f:	00 
    2360:	4c 01 f8             	add    %r15,%rax
    2363:	48 89 84 24 38 01 00 	mov    %rax,0x138(%rsp)
    236a:	00 
    236b:	4c 01 f8             	add    %r15,%rax
    236e:	48 89 84 24 30 01 00 	mov    %rax,0x130(%rsp)
    2375:	00 
    2376:	4c 01 f8             	add    %r15,%rax
    2379:	48 89 84 24 28 01 00 	mov    %rax,0x128(%rsp)
    2380:	00 
    2381:	4c 01 f8             	add    %r15,%rax
    2384:	48 89 84 24 20 01 00 	mov    %rax,0x120(%rsp)
    238b:	00 
    238c:	4c 01 f8             	add    %r15,%rax
    238f:	48 89 84 24 18 01 00 	mov    %rax,0x118(%rsp)
    2396:	00 
    2397:	4c 01 f8             	add    %r15,%rax
    239a:	48 89 84 24 10 01 00 	mov    %rax,0x110(%rsp)
    23a1:	00 
    23a2:	4c 01 f8             	add    %r15,%rax
    23a5:	48 89 84 24 08 01 00 	mov    %rax,0x108(%rsp)
    23ac:	00 
    23ad:	4c 01 f8             	add    %r15,%rax
    23b0:	48 89 84 24 00 01 00 	mov    %rax,0x100(%rsp)
    23b7:	00 
    23b8:	4c 01 f8             	add    %r15,%rax
    23bb:	48 89 84 24 f8 00 00 	mov    %rax,0xf8(%rsp)
    23c2:	00 
    23c3:	4c 01 f8             	add    %r15,%rax
    23c6:	48 89 84 24 f0 00 00 	mov    %rax,0xf0(%rsp)
    23cd:	00 
    23ce:	4c 01 f8             	add    %r15,%rax
    23d1:	48 89 84 24 e8 00 00 	mov    %rax,0xe8(%rsp)
    23d8:	00 
    23d9:	4c 01 f8             	add    %r15,%rax
    23dc:	48 89 84 24 e0 00 00 	mov    %rax,0xe0(%rsp)
    23e3:	00 
    23e4:	4c 01 f8             	add    %r15,%rax
    23e7:	48 89 84 24 d8 00 00 	mov    %rax,0xd8(%rsp)
    23ee:	00 
    23ef:	4c 01 f8             	add    %r15,%rax
    23f2:	48 89 84 24 d0 00 00 	mov    %rax,0xd0(%rsp)
    23f9:	00 
    23fa:	4c 01 f8             	add    %r15,%rax
    23fd:	48 89 84 24 c8 00 00 	mov    %rax,0xc8(%rsp)
    2404:	00 
    2405:	4c 01 f8             	add    %r15,%rax
    2408:	48 89 84 24 c0 00 00 	mov    %rax,0xc0(%rsp)
    240f:	00 
    2410:	4c 01 f8             	add    %r15,%rax
    2413:	48 89 84 24 b8 00 00 	mov    %rax,0xb8(%rsp)
    241a:	00 
    241b:	4c 01 f8             	add    %r15,%rax
    241e:	48 89 84 24 b0 00 00 	mov    %rax,0xb0(%rsp)
    2425:	00 
    2426:	4c 01 f8             	add    %r15,%rax
    2429:	48 89 84 24 a8 00 00 	mov    %rax,0xa8(%rsp)
    2430:	00 
    2431:	4c 01 f8             	add    %r15,%rax
    2434:	48 89 84 24 a0 00 00 	mov    %rax,0xa0(%rsp)
    243b:	00 
    243c:	48 8b 84 24 48 07 00 	mov    0x748(%rsp),%rax
    2443:	00 
    2444:	4c 01 f8             	add    %r15,%rax
    2447:	48 89 84 24 98 00 00 	mov    %rax,0x98(%rsp)
    244e:	00 
    244f:	4c 01 f8             	add    %r15,%rax
    2452:	48 89 84 24 90 00 00 	mov    %rax,0x90(%rsp)
    2459:	00 
    245a:	4c 01 f8             	add    %r15,%rax
    245d:	48 89 84 24 88 00 00 	mov    %rax,0x88(%rsp)
    2464:	00 
    2465:	4c 01 f8             	add    %r15,%rax
    2468:	48 89 84 24 80 00 00 	mov    %rax,0x80(%rsp)
    246f:	00 
    2470:	4c 01 f8             	add    %r15,%rax
    2473:	48 89 44 24 78       	mov    %rax,0x78(%rsp)
    2478:	4c 01 f8             	add    %r15,%rax
    247b:	48 89 44 24 70       	mov    %rax,0x70(%rsp)
    2480:	4c 01 f8             	add    %r15,%rax
    2483:	48 89 44 24 68       	mov    %rax,0x68(%rsp)
    2488:	4c 01 f8             	add    %r15,%rax
    248b:	48 89 44 24 60       	mov    %rax,0x60(%rsp)
    2490:	4c 01 f8             	add    %r15,%rax
    2493:	48 89 44 24 58       	mov    %rax,0x58(%rsp)
    2498:	4c 01 f8             	add    %r15,%rax
    249b:	48 89 44 24 50       	mov    %rax,0x50(%rsp)
    24a0:	4c 01 f8             	add    %r15,%rax
    24a3:	48 89 44 24 48       	mov    %rax,0x48(%rsp)
    24a8:	4c 01 f8             	add    %r15,%rax
    24ab:	48 89 44 24 40       	mov    %rax,0x40(%rsp)
    24b0:	4c 01 f8             	add    %r15,%rax
    24b3:	48 89 44 24 38       	mov    %rax,0x38(%rsp)
    24b8:	4c 01 f8             	add    %r15,%rax
    24bb:	48 89 44 24 30       	mov    %rax,0x30(%rsp)
    24c0:	4c 01 f8             	add    %r15,%rax
    24c3:	48 89 44 24 28       	mov    %rax,0x28(%rsp)
    24c8:	4c 01 f8             	add    %r15,%rax
    24cb:	48 89 44 24 20       	mov    %rax,0x20(%rsp)
    24d0:	4c 01 f8             	add    %r15,%rax
    24d3:	48 89 44 24 18       	mov    %rax,0x18(%rsp)
    24d8:	4c 01 f8             	add    %r15,%rax
    24db:	48 89 44 24 10       	mov    %rax,0x10(%rsp)
    24e0:	4c 01 f8             	add    %r15,%rax
    24e3:	48 89 44 24 08       	mov    %rax,0x8(%rsp)
    24e8:	4c 01 f8             	add    %r15,%rax
    24eb:	48 89 04 24          	mov    %rax,(%rsp)
    24ef:	4c 01 f8             	add    %r15,%rax
    24f2:	48 89 44 24 f8       	mov    %rax,-0x8(%rsp)
    24f7:	4c 01 f8             	add    %r15,%rax
    24fa:	48 89 44 24 f0       	mov    %rax,-0x10(%rsp)
    24ff:	4c 01 f8             	add    %r15,%rax
    2502:	48 89 44 24 e8       	mov    %rax,-0x18(%rsp)
    2507:	4c 01 f8             	add    %r15,%rax
    250a:	48 89 44 24 e0       	mov    %rax,-0x20(%rsp)
    250f:	4c 01 f8             	add    %r15,%rax
    2512:	48 89 44 24 d8       	mov    %rax,-0x28(%rsp)
    2517:	4c 01 f8             	add    %r15,%rax
    251a:	48 89 44 24 d0       	mov    %rax,-0x30(%rsp)
    251f:	4c 01 f8             	add    %r15,%rax
    2522:	48 89 44 24 c8       	mov    %rax,-0x38(%rsp)
    2527:	4c 01 f8             	add    %r15,%rax
    252a:	48 89 44 24 c0       	mov    %rax,-0x40(%rsp)
    252f:	4c 01 f8             	add    %r15,%rax
    2532:	48 89 44 24 b8       	mov    %rax,-0x48(%rsp)
    2537:	4c 01 f8             	add    %r15,%rax
    253a:	48 89 44 24 b0       	mov    %rax,-0x50(%rsp)
    253f:	48 8b 84 24 80 07 00 	mov    0x780(%rsp),%rax
    2546:	00 
    2547:	0f b6 40 03          	movzbl 0x3(%rax),%eax
    254b:	c5 f9 6e e8          	vmovd  %eax,%xmm5
    254f:	41 0f b6 45 03       	movzbl 0x3(%r13),%eax
    2554:	c4 c3 51 20 6e 03 01 	vpinsrb $0x1,0x3(%r14),%xmm5,%xmm5
    255b:	c5 79 6e d0          	vmovd  %eax,%xmm10
    255f:	0f b6 43 03          	movzbl 0x3(%rbx),%eax
    2563:	c4 43 29 20 54 24 03 	vpinsrb $0x1,0x3(%r12),%xmm10,%xmm10
    256a:	01 
    256b:	c5 79 6e c8          	vmovd  %eax,%xmm9
    256f:	41 0f b6 42 03       	movzbl 0x3(%r10),%eax
    2574:	c4 43 31 20 4b 03 01 	vpinsrb $0x1,0x3(%r11),%xmm9,%xmm9
    257b:	c4 c1 51 61 ea       	vpunpcklwd %xmm10,%xmm5,%xmm5
    2580:	c5 79 6e c0          	vmovd  %eax,%xmm8
    2584:	41 0f b6 40 03       	movzbl 0x3(%r8),%eax
    2589:	c4 43 39 20 41 03 01 	vpinsrb $0x1,0x3(%r9),%xmm8,%xmm8
    2590:	4c 8b 84 24 d0 06 00 	mov    0x6d0(%rsp),%r8
    2597:	00 
    2598:	c5 f9 6e c0          	vmovd  %eax,%xmm0
    259c:	0f b6 46 03          	movzbl 0x3(%rsi),%eax
    25a0:	c4 e3 79 20 47 03 01 	vpinsrb $0x1,0x3(%rdi),%xmm0,%xmm0
    25a7:	c4 41 31 61 c8       	vpunpcklwd %xmm8,%xmm9,%xmm9
    25ac:	c4 c1 51 62 e9       	vpunpckldq %xmm9,%xmm5,%xmm5
    25b1:	c5 f9 6e f8          	vmovd  %eax,%xmm7
    25b5:	0f b6 42 03          	movzbl 0x3(%rdx),%eax
    25b9:	c4 c3 41 20 78 03 01 	vpinsrb $0x1,0x3(%r8),%xmm7,%xmm7
    25c0:	4c 8b 84 24 c8 06 00 	mov    0x6c8(%rsp),%r8
    25c7:	00 
    25c8:	c5 f9 6e c8          	vmovd  %eax,%xmm1
    25cc:	c5 f9 61 c7          	vpunpcklwd %xmm7,%xmm0,%xmm0
    25d0:	c4 c3 71 20 48 03 01 	vpinsrb $0x1,0x3(%r8),%xmm1,%xmm1
    25d7:	4c 8b 84 24 c0 06 00 	mov    0x6c0(%rsp),%r8
    25de:	00 
    25df:	41 0f b6 40 03       	movzbl 0x3(%r8),%eax
    25e4:	4c 8b 84 24 b8 06 00 	mov    0x6b8(%rsp),%r8
    25eb:	00 
    25ec:	c5 f9 6e f0          	vmovd  %eax,%xmm6
    25f0:	c4 c3 49 20 70 03 01 	vpinsrb $0x1,0x3(%r8),%xmm6,%xmm6
    25f7:	4c 8b 84 24 b0 06 00 	mov    0x6b0(%rsp),%r8
    25fe:	00 
    25ff:	c5 f1 61 ce          	vpunpcklwd %xmm6,%xmm1,%xmm1
    2603:	41 0f b6 40 03       	movzbl 0x3(%r8),%eax
    2608:	4c 8b 84 24 a8 06 00 	mov    0x6a8(%rsp),%r8
    260f:	00 
    2610:	c5 f9 62 c1          	vpunpckldq %xmm1,%xmm0,%xmm0
    2614:	c5 51 6c c0          	vpunpcklqdq %xmm0,%xmm5,%xmm8
    2618:	c5 f9 6e c0          	vmovd  %eax,%xmm0
    261c:	c4 c3 79 20 40 03 01 	vpinsrb $0x1,0x3(%r8),%xmm0,%xmm0
    2623:	4c 8b 84 24 a0 06 00 	mov    0x6a0(%rsp),%r8
    262a:	00 
    262b:	41 0f b6 40 03       	movzbl 0x3(%r8),%eax
    2630:	4c 8b 84 24 98 06 00 	mov    0x698(%rsp),%r8
    2637:	00 
    2638:	48 8b 9c 24 78 07 00 	mov    0x778(%rsp),%rbx
    263f:	00 
    2640:	c5 79 6e d0          	vmovd  %eax,%xmm10
    2644:	c4 43 29 20 50 03 01 	vpinsrb $0x1,0x3(%r8),%xmm10,%xmm10
    264b:	4c 8b 84 24 90 06 00 	mov    0x690(%rsp),%r8
    2652:	00 
    2653:	41 0f b6 40 03       	movzbl 0x3(%r8),%eax
    2658:	4c 8b 84 24 88 06 00 	mov    0x688(%rsp),%r8
    265f:	00 
    2660:	c4 c1 79 61 c2       	vpunpcklwd %xmm10,%xmm0,%xmm0
    2665:	c5 79 6e c8          	vmovd  %eax,%xmm9
    2669:	c4 43 31 20 58 03 01 	vpinsrb $0x1,0x3(%r8),%xmm9,%xmm11
    2670:	4c 8b 84 24 80 06 00 	mov    0x680(%rsp),%r8
    2677:	00 
    2678:	41 0f b6 40 03       	movzbl 0x3(%r8),%eax
    267d:	4c 8b 84 24 78 06 00 	mov    0x678(%rsp),%r8
    2684:	00 
    2685:	c5 79 6e c8          	vmovd  %eax,%xmm9
    2689:	c4 43 31 20 48 03 01 	vpinsrb $0x1,0x3(%r8),%xmm9,%xmm9
    2690:	4c 8b 84 24 70 06 00 	mov    0x670(%rsp),%r8
    2697:	00 
    2698:	41 0f b6 40 03       	movzbl 0x3(%r8),%eax
    269d:	4c 8b 84 24 68 06 00 	mov    0x668(%rsp),%r8
    26a4:	00 
    26a5:	c4 41 21 61 c9       	vpunpcklwd %xmm9,%xmm11,%xmm9
    26aa:	c4 c1 79 62 c1       	vpunpckldq %xmm9,%xmm0,%xmm0
    26af:	c5 f9 6e e8          	vmovd  %eax,%xmm5
    26b3:	c4 c3 51 20 68 03 01 	vpinsrb $0x1,0x3(%r8),%xmm5,%xmm5
    26ba:	4c 8b 84 24 60 06 00 	mov    0x660(%rsp),%r8
    26c1:	00 
    26c2:	41 0f b6 40 03       	movzbl 0x3(%r8),%eax
    26c7:	4c 8b 84 24 58 06 00 	mov    0x658(%rsp),%r8
    26ce:	00 
    26cf:	c5 f9 6e f8          	vmovd  %eax,%xmm7
    26d3:	c4 c3 41 20 78 03 01 	vpinsrb $0x1,0x3(%r8),%xmm7,%xmm7
    26da:	4c 8b 84 24 50 06 00 	mov    0x650(%rsp),%r8
    26e1:	00 
    26e2:	41 0f b6 40 03       	movzbl 0x3(%r8),%eax
    26e7:	4c 8b 84 24 48 06 00 	mov    0x648(%rsp),%r8
    26ee:	00 
    26ef:	c5 d1 61 ef          	vpunpcklwd %xmm7,%xmm5,%xmm5
    26f3:	c5 f9 6e c8          	vmovd  %eax,%xmm1
    26f7:	c4 c3 71 20 48 03 01 	vpinsrb $0x1,0x3(%r8),%xmm1,%xmm1
    26fe:	4c 8b 84 24 40 06 00 	mov    0x640(%rsp),%r8
    2705:	00 
    2706:	41 0f b6 40 03       	movzbl 0x3(%r8),%eax
    270b:	c5 f9 6e f0          	vmovd  %eax,%xmm6
    270f:	0f b6 03             	movzbl (%rbx),%eax
    2712:	c4 83 49 20 74 38 03 	vpinsrb $0x1,0x3(%r8,%r15,1),%xmm6,%xmm6
    2719:	01 
    271a:	4c 8b 84 24 38 06 00 	mov    0x638(%rsp),%r8
    2721:	00 
    2722:	c5 f1 61 ce          	vpunpcklwd %xmm6,%xmm1,%xmm1
    2726:	c5 f9 6e f0          	vmovd  %eax,%xmm6
    272a:	c4 c3 49 20 30 01    	vpinsrb $0x1,(%r8),%xmm6,%xmm6
    2730:	4c 8b 84 24 30 06 00 	mov    0x630(%rsp),%r8
    2737:	00 
    2738:	c5 d1 62 e9          	vpunpckldq %xmm1,%xmm5,%xmm5
    273c:	c5 f9 6c c5          	vpunpcklqdq %xmm5,%xmm0,%xmm0
    2740:	41 0f b6 00          	movzbl (%r8),%eax
    2744:	4c 8b 84 24 28 06 00 	mov    0x628(%rsp),%r8
    274b:	00 
    274c:	c4 e3 3d 38 c8 01    	vinserti128 $0x1,%xmm0,%ymm8,%ymm1
    2752:	c5 79 6e d0          	vmovd  %eax,%xmm10
    2756:	c4 43 29 20 10 01    	vpinsrb $0x1,(%r8),%xmm10,%xmm10
    275c:	4c 8b 84 24 20 06 00 	mov    0x620(%rsp),%r8
    2763:	00 
    2764:	41 0f b6 00          	movzbl (%r8),%eax
    2768:	4c 8b 84 24 18 06 00 	mov    0x618(%rsp),%r8
    276f:	00 
    2770:	c4 c1 49 61 f2       	vpunpcklwd %xmm10,%xmm6,%xmm6
    2775:	c5 79 6e c8          	vmovd  %eax,%xmm9
    2779:	c4 43 31 20 18 01    	vpinsrb $0x1,(%r8),%xmm9,%xmm11
    277f:	4c 8b 84 24 10 06 00 	mov    0x610(%rsp),%r8
    2786:	00 
    2787:	41 0f b6 00          	movzbl (%r8),%eax
    278b:	4c 8b 84 24 08 06 00 	mov    0x608(%rsp),%r8
    2792:	00 
    2793:	c5 79 6e c8          	vmovd  %eax,%xmm9
    2797:	c4 43 31 20 08 01    	vpinsrb $0x1,(%r8),%xmm9,%xmm9
    279d:	4c 8b 84 24 00 06 00 	mov    0x600(%rsp),%r8
    27a4:	00 
    27a5:	41 0f b6 00          	movzbl (%r8),%eax
    27a9:	4c 8b 84 24 f8 05 00 	mov    0x5f8(%rsp),%r8
    27b0:	00 
    27b1:	c4 41 21 61 c9       	vpunpcklwd %xmm9,%xmm11,%xmm9
    27b6:	c4 c1 49 62 f1       	vpunpckldq %xmm9,%xmm6,%xmm6
    27bb:	c5 f9 6e e8          	vmovd  %eax,%xmm5
    27bf:	c4 c3 51 20 28 01    	vpinsrb $0x1,(%r8),%xmm5,%xmm5
    27c5:	4c 8b 84 24 f0 05 00 	mov    0x5f0(%rsp),%r8
    27cc:	00 
    27cd:	41 0f b6 00          	movzbl (%r8),%eax
    27d1:	4c 8b 84 24 e8 05 00 	mov    0x5e8(%rsp),%r8
    27d8:	00 
    27d9:	c5 79 6e c0          	vmovd  %eax,%xmm8
    27dd:	c4 43 39 20 00 01    	vpinsrb $0x1,(%r8),%xmm8,%xmm8
    27e3:	4c 8b 84 24 e0 05 00 	mov    0x5e0(%rsp),%r8
    27ea:	00 
    27eb:	41 0f b6 00          	movzbl (%r8),%eax
    27ef:	4c 8b 84 24 d8 05 00 	mov    0x5d8(%rsp),%r8
    27f6:	00 
    27f7:	c4 c1 51 61 e8       	vpunpcklwd %xmm8,%xmm5,%xmm5
    27fc:	c5 f9 6e c0          	vmovd  %eax,%xmm0
    2800:	c4 c3 79 20 00 01    	vpinsrb $0x1,(%r8),%xmm0,%xmm0
    2806:	4c 8b 84 24 d0 05 00 	mov    0x5d0(%rsp),%r8
    280d:	00 
    280e:	41 0f b6 00          	movzbl (%r8),%eax
    2812:	4c 8b 84 24 c8 05 00 	mov    0x5c8(%rsp),%r8
    2819:	00 
    281a:	c5 f9 6e f8          	vmovd  %eax,%xmm7
    281e:	c4 c3 41 20 38 01    	vpinsrb $0x1,(%r8),%xmm7,%xmm7
    2824:	4c 8b 84 24 c0 05 00 	mov    0x5c0(%rsp),%r8
    282b:	00 
    282c:	c5 f9 61 c7          	vpunpcklwd %xmm7,%xmm0,%xmm0
    2830:	41 0f b6 00          	movzbl (%r8),%eax
    2834:	4c 8b 84 24 b8 05 00 	mov    0x5b8(%rsp),%r8
    283b:	00 
    283c:	c5 d1 62 c0          	vpunpckldq %xmm0,%xmm5,%xmm0
    2840:	c5 49 6c c8          	vpunpcklqdq %xmm0,%xmm6,%xmm9
    2844:	c5 f9 6e c0          	vmovd  %eax,%xmm0
    2848:	c4 c3 79 20 00 01    	vpinsrb $0x1,(%r8),%xmm0,%xmm0
    284e:	4c 8b 84 24 b0 05 00 	mov    0x5b0(%rsp),%r8
    2855:	00 
    2856:	41 0f b6 00          	movzbl (%r8),%eax
    285a:	4c 8b 84 24 a8 05 00 	mov    0x5a8(%rsp),%r8
    2861:	00 
    2862:	48 8b bc 24 70 07 00 	mov    0x770(%rsp),%rdi
    2869:	00 
    286a:	c5 79 6e c0          	vmovd  %eax,%xmm8
    286e:	c4 43 39 20 00 01    	vpinsrb $0x1,(%r8),%xmm8,%xmm8
    2874:	4c 8b 84 24 a0 05 00 	mov    0x5a0(%rsp),%r8
    287b:	00 
    287c:	41 0f b6 00          	movzbl (%r8),%eax
    2880:	4c 8b 84 24 98 05 00 	mov    0x598(%rsp),%r8
    2887:	00 
    2888:	c4 c1 79 61 c0       	vpunpcklwd %xmm8,%xmm0,%xmm0
    288d:	c5 f9 6e f8          	vmovd  %eax,%xmm7
    2891:	c4 43 41 20 18 01    	vpinsrb $0x1,(%r8),%xmm7,%xmm11
    2897:	4c 8b 84 24 90 05 00 	mov    0x590(%rsp),%r8
    289e:	00 
    289f:	41 0f b6 00          	movzbl (%r8),%eax
    28a3:	4c 8b 84 24 88 05 00 	mov    0x588(%rsp),%r8
    28aa:	00 
    28ab:	c5 f9 6e f8          	vmovd  %eax,%xmm7
    28af:	c4 c3 41 20 38 01    	vpinsrb $0x1,(%r8),%xmm7,%xmm7
    28b5:	4c 8b 84 24 80 05 00 	mov    0x580(%rsp),%r8
    28bc:	00 
    28bd:	41 0f b6 00          	movzbl (%r8),%eax
    28c1:	4c 8b 84 24 78 05 00 	mov    0x578(%rsp),%r8
    28c8:	00 
    28c9:	c5 a1 61 ff          	vpunpcklwd %xmm7,%xmm11,%xmm7
    28cd:	c5 f9 62 c7          	vpunpckldq %xmm7,%xmm0,%xmm0
    28d1:	c5 f9 6e e8          	vmovd  %eax,%xmm5
    28d5:	c4 c3 51 20 28 01    	vpinsrb $0x1,(%r8),%xmm5,%xmm5
    28db:	4c 8b 84 24 70 05 00 	mov    0x570(%rsp),%r8
    28e2:	00 
    28e3:	41 0f b6 00          	movzbl (%r8),%eax
    28e7:	4c 8b 84 24 68 05 00 	mov    0x568(%rsp),%r8
    28ee:	00 
    28ef:	c5 79 6e e0          	vmovd  %eax,%xmm12
    28f3:	c4 43 19 20 20 01    	vpinsrb $0x1,(%r8),%xmm12,%xmm12
    28f9:	4c 8b 84 24 60 05 00 	mov    0x560(%rsp),%r8
    2900:	00 
    2901:	41 0f b6 00          	movzbl (%r8),%eax
    2905:	4c 8b 84 24 58 05 00 	mov    0x558(%rsp),%r8
    290c:	00 
    290d:	c4 c1 51 61 ec       	vpunpcklwd %xmm12,%xmm5,%xmm5
    2912:	c5 f9 6e f0          	vmovd  %eax,%xmm6
    2916:	c4 43 49 20 10 01    	vpinsrb $0x1,(%r8),%xmm6,%xmm10
    291c:	4c 8b 84 24 50 05 00 	mov    0x550(%rsp),%r8
    2923:	00 
    2924:	41 0f b6 00          	movzbl (%r8),%eax
    2928:	c5 f9 6e f0          	vmovd  %eax,%xmm6
    292c:	c4 83 49 20 34 38 01 	vpinsrb $0x1,(%r8,%r15,1),%xmm6,%xmm6
    2933:	0f b6 47 01          	movzbl 0x1(%rdi),%eax
    2937:	4c 8b 84 24 48 05 00 	mov    0x548(%rsp),%r8
    293e:	00 
    293f:	c5 a9 61 f6          	vpunpcklwd %xmm6,%xmm10,%xmm6
    2943:	c5 d1 62 ee          	vpunpckldq %xmm6,%xmm5,%xmm5
    2947:	c5 f9 6c c5          	vpunpcklqdq %xmm5,%xmm0,%xmm0
    294b:	c5 f9 6e e8          	vmovd  %eax,%xmm5
    294f:	c4 c3 51 20 68 01 01 	vpinsrb $0x1,0x1(%r8),%xmm5,%xmm5
    2956:	4c 8b 84 24 40 05 00 	mov    0x540(%rsp),%r8
    295d:	00 
    295e:	c4 e3 35 38 f0 01    	vinserti128 $0x1,%xmm0,%ymm9,%ymm6
    2964:	41 0f b6 40 01       	movzbl 0x1(%r8),%eax
    2969:	4c 8b 84 24 38 05 00 	mov    0x538(%rsp),%r8
    2970:	00 
    2971:	c5 f5 fc ce          	vpaddb %ymm6,%ymm1,%ymm1
    2975:	c5 79 6e d0          	vmovd  %eax,%xmm10
    2979:	c4 43 29 20 50 01 01 	vpinsrb $0x1,0x1(%r8),%xmm10,%xmm10
    2980:	4c 8b 84 24 30 05 00 	mov    0x530(%rsp),%r8
    2987:	00 
    2988:	41 0f b6 40 01       	movzbl 0x1(%r8),%eax
    298d:	4c 8b 84 24 28 05 00 	mov    0x528(%rsp),%r8
    2994:	00 
    2995:	c4 c1 51 61 ea       	vpunpcklwd %xmm10,%xmm5,%xmm5
    299a:	c5 79 6e c8          	vmovd  %eax,%xmm9
    299e:	c4 43 31 20 58 01 01 	vpinsrb $0x1,0x1(%r8),%xmm9,%xmm11
    29a5:	4c 8b 84 24 20 05 00 	mov    0x520(%rsp),%r8
    29ac:	00 
    29ad:	41 0f b6 40 01       	movzbl 0x1(%r8),%eax
    29b2:	4c 8b 84 24 18 05 00 	mov    0x518(%rsp),%r8
    29b9:	00 
    29ba:	c5 79 6e c8          	vmovd  %eax,%xmm9
    29be:	c4 43 31 20 48 01 01 	vpinsrb $0x1,0x1(%r8),%xmm9,%xmm9
    29c5:	4c 8b 84 24 10 05 00 	mov    0x510(%rsp),%r8
    29cc:	00 
    29cd:	41 0f b6 40 01       	movzbl 0x1(%r8),%eax
    29d2:	4c 8b 84 24 08 05 00 	mov    0x508(%rsp),%r8
    29d9:	00 
    29da:	c4 41 21 61 c9       	vpunpcklwd %xmm9,%xmm11,%xmm9
    29df:	c4 c1 51 62 e9       	vpunpckldq %xmm9,%xmm5,%xmm5
    29e4:	c5 f9 6e f0          	vmovd  %eax,%xmm6
    29e8:	c4 c3 49 20 70 01 01 	vpinsrb $0x1,0x1(%r8),%xmm6,%xmm6
    29ef:	4c 8b 84 24 00 05 00 	mov    0x500(%rsp),%r8
    29f6:	00 
    29f7:	41 0f b6 40 01       	movzbl 0x1(%r8),%eax
    29fc:	4c 8b 84 24 f8 04 00 	mov    0x4f8(%rsp),%r8
    2a03:	00 
    2a04:	c5 79 6e c0          	vmovd  %eax,%xmm8
    2a08:	c4 43 39 20 40 01 01 	vpinsrb $0x1,0x1(%r8),%xmm8,%xmm8
    2a0f:	4c 8b 84 24 f0 04 00 	mov    0x4f0(%rsp),%r8
    2a16:	00 
    2a17:	41 0f b6 40 01       	movzbl 0x1(%r8),%eax
    2a1c:	4c 8b 84 24 e8 04 00 	mov    0x4e8(%rsp),%r8
    2a23:	00 
    2a24:	c4 c1 49 61 f0       	vpunpcklwd %xmm8,%xmm6,%xmm6
    2a29:	c5 f9 6e c0          	vmovd  %eax,%xmm0
    2a2d:	c4 c3 79 20 40 01 01 	vpinsrb $0x1,0x1(%r8),%xmm0,%xmm0
    2a34:	4c 8b 84 24 e0 04 00 	mov    0x4e0(%rsp),%r8
    2a3b:	00 
    2a3c:	41 0f b6 40 01       	movzbl 0x1(%r8),%eax
    2a41:	4c 8b 84 24 d8 04 00 	mov    0x4d8(%rsp),%r8
    2a48:	00 
    2a49:	c5 f9 6e f8          	vmovd  %eax,%xmm7
    2a4d:	c4 c3 41 20 78 01 01 	vpinsrb $0x1,0x1(%r8),%xmm7,%xmm7
    2a54:	4c 8b 84 24 d0 04 00 	mov    0x4d0(%rsp),%r8
    2a5b:	00 
    2a5c:	c5 f9 61 c7          	vpunpcklwd %xmm7,%xmm0,%xmm0
    2a60:	41 0f b6 40 01       	movzbl 0x1(%r8),%eax
    2a65:	4c 8b 84 24 c8 04 00 	mov    0x4c8(%rsp),%r8
    2a6c:	00 
    2a6d:	c5 c9 62 c0          	vpunpckldq %xmm0,%xmm6,%xmm0
    2a71:	c5 d1 6c e8          	vpunpcklqdq %xmm0,%xmm5,%xmm5
    2a75:	c5 f9 6e c0          	vmovd  %eax,%xmm0
    2a79:	c4 c3 79 20 40 01 01 	vpinsrb $0x1,0x1(%r8),%xmm0,%xmm0
    2a80:	4c 8b 84 24 c0 04 00 	mov    0x4c0(%rsp),%r8
    2a87:	00 
    2a88:	41 0f b6 40 01       	movzbl 0x1(%r8),%eax
    2a8d:	4c 8b 84 24 b8 04 00 	mov    0x4b8(%rsp),%r8
    2a94:	00 
    2a95:	c5 79 6e c8          	vmovd  %eax,%xmm9
    2a99:	c4 43 31 20 48 01 01 	vpinsrb $0x1,0x1(%r8),%xmm9,%xmm9
    2aa0:	4c 8b 84 24 b0 04 00 	mov    0x4b0(%rsp),%r8
    2aa7:	00 
    2aa8:	48 8b 94 24 68 07 00 	mov    0x768(%rsp),%rdx
    2aaf:	00 
    2ab0:	41 0f b6 40 01       	movzbl 0x1(%r8),%eax
    2ab5:	4c 8b 84 24 a8 04 00 	mov    0x4a8(%rsp),%r8
    2abc:	00 
    2abd:	c4 c1 79 61 c1       	vpunpcklwd %xmm9,%xmm0,%xmm0
    2ac2:	c5 79 6e c0          	vmovd  %eax,%xmm8
    2ac6:	c4 43 39 20 58 01 01 	vpinsrb $0x1,0x1(%r8),%xmm8,%xmm11
    2acd:	4c 8b 84 24 a0 04 00 	mov    0x4a0(%rsp),%r8
    2ad4:	00 
    2ad5:	41 0f b6 40 01       	movzbl 0x1(%r8),%eax
    2ada:	4c 8b 84 24 98 04 00 	mov    0x498(%rsp),%r8
    2ae1:	00 
    2ae2:	c5 79 6e c0          	vmovd  %eax,%xmm8
    2ae6:	c4 43 39 20 40 01 01 	vpinsrb $0x1,0x1(%r8),%xmm8,%xmm8
    2aed:	4c 8b 84 24 90 04 00 	mov    0x490(%rsp),%r8
    2af4:	00 
    2af5:	41 0f b6 40 01       	movzbl 0x1(%r8),%eax
    2afa:	4c 8b 84 24 88 04 00 	mov    0x488(%rsp),%r8
    2b01:	00 
    2b02:	c4 41 21 61 c0       	vpunpcklwd %xmm8,%xmm11,%xmm8
    2b07:	c4 c1 79 62 c0       	vpunpckldq %xmm8,%xmm0,%xmm0
    2b0c:	c5 f9 6e f0          	vmovd  %eax,%xmm6
    2b10:	c4 c3 49 20 70 01 01 	vpinsrb $0x1,0x1(%r8),%xmm6,%xmm6
    2b17:	4c 8b 84 24 80 04 00 	mov    0x480(%rsp),%r8
    2b1e:	00 
    2b1f:	41 0f b6 40 01       	movzbl 0x1(%r8),%eax
    2b24:	4c 8b 84 24 78 04 00 	mov    0x478(%rsp),%r8
    2b2b:	00 
    2b2c:	c5 79 6e e0          	vmovd  %eax,%xmm12
    2b30:	c4 43 19 20 60 01 01 	vpinsrb $0x1,0x1(%r8),%xmm12,%xmm12
    2b37:	4c 8b 84 24 70 04 00 	mov    0x470(%rsp),%r8
    2b3e:	00 
    2b3f:	41 0f b6 40 01       	movzbl 0x1(%r8),%eax
    2b44:	4c 8b 84 24 68 04 00 	mov    0x468(%rsp),%r8
    2b4b:	00 
    2b4c:	c4 c1 49 61 f4       	vpunpcklwd %xmm12,%xmm6,%xmm6
    2b51:	c5 f9 6e f8          	vmovd  %eax,%xmm7
    2b55:	c4 43 41 20 50 01 01 	vpinsrb $0x1,0x1(%r8),%xmm7,%xmm10
    2b5c:	4c 8b 84 24 60 04 00 	mov    0x460(%rsp),%r8
    2b63:	00 
    2b64:	41 0f b6 40 01       	movzbl 0x1(%r8),%eax
    2b69:	c5 f9 6e f8          	vmovd  %eax,%xmm7
    2b6d:	c4 83 41 20 7c 38 01 	vpinsrb $0x1,0x1(%r8,%r15,1),%xmm7,%xmm7
    2b74:	01 
    2b75:	0f b6 42 02          	movzbl 0x2(%rdx),%eax
    2b79:	4c 8b 84 24 58 04 00 	mov    0x458(%rsp),%r8
    2b80:	00 
    2b81:	c5 a9 61 ff          	vpunpcklwd %xmm7,%xmm10,%xmm7
    2b85:	c5 c9 62 f7          	vpunpckldq %xmm7,%xmm6,%xmm6
    2b89:	c5 f9 6c c6          	vpunpcklqdq %xmm6,%xmm0,%xmm0
    2b8d:	c5 f9 6e f0          	vmovd  %eax,%xmm6
    2b91:	c4 c3 49 20 70 02 01 	vpinsrb $0x1,0x2(%r8),%xmm6,%xmm6
    2b98:	4c 8b 84 24 50 04 00 	mov    0x450(%rsp),%r8
    2b9f:	00 
    2ba0:	c4 e3 55 38 e8 01    	vinserti128 $0x1,%xmm0,%ymm5,%ymm5
    2ba6:	41 0f b6 40 02       	movzbl 0x2(%r8),%eax
    2bab:	4c 8b 84 24 48 04 00 	mov    0x448(%rsp),%r8
    2bb2:	00 
    2bb3:	c5 79 6e c8          	vmovd  %eax,%xmm9
    2bb7:	c4 43 31 20 48 02 01 	vpinsrb $0x1,0x2(%r8),%xmm9,%xmm9
    2bbe:	4c 8b 84 24 40 04 00 	mov    0x440(%rsp),%r8
    2bc5:	00 
    2bc6:	41 0f b6 40 02       	movzbl 0x2(%r8),%eax
    2bcb:	4c 8b 84 24 38 04 00 	mov    0x438(%rsp),%r8
    2bd2:	00 
    2bd3:	c4 c1 49 61 f1       	vpunpcklwd %xmm9,%xmm6,%xmm6
    2bd8:	c5 79 6e c0          	vmovd  %eax,%xmm8
    2bdc:	c4 43 39 20 58 02 01 	vpinsrb $0x1,0x2(%r8),%xmm8,%xmm11
    2be3:	4c 8b 84 24 30 04 00 	mov    0x430(%rsp),%r8
    2bea:	00 
    2beb:	41 0f b6 40 02       	movzbl 0x2(%r8),%eax
    2bf0:	4c 8b 84 24 28 04 00 	mov    0x428(%rsp),%r8
    2bf7:	00 
    2bf8:	c5 79 6e c0          	vmovd  %eax,%xmm8
    2bfc:	c4 43 39 20 40 02 01 	vpinsrb $0x1,0x2(%r8),%xmm8,%xmm8
    2c03:	4c 8b 84 24 20 04 00 	mov    0x420(%rsp),%r8
    2c0a:	00 
    2c0b:	41 0f b6 40 02       	movzbl 0x2(%r8),%eax
    2c10:	4c 8b 84 24 18 04 00 	mov    0x418(%rsp),%r8
    2c17:	00 
    2c18:	c4 41 21 61 c0       	vpunpcklwd %xmm8,%xmm11,%xmm8
    2c1d:	c4 c1 49 62 f0       	vpunpckldq %xmm8,%xmm6,%xmm6
    2c22:	c5 f9 6e c0          	vmovd  %eax,%xmm0
    2c26:	c4 c3 79 20 40 02 01 	vpinsrb $0x1,0x2(%r8),%xmm0,%xmm0
    2c2d:	4c 8b 84 24 10 04 00 	mov    0x410(%rsp),%r8
    2c34:	00 
    2c35:	41 0f b6 40 02       	movzbl 0x2(%r8),%eax
    2c3a:	4c 8b 84 24 08 04 00 	mov    0x408(%rsp),%r8
    2c41:	00 
    2c42:	c5 79 6e e0          	vmovd  %eax,%xmm12
    2c46:	c4 43 19 20 60 02 01 	vpinsrb $0x1,0x2(%r8),%xmm12,%xmm12
    2c4d:	4c 8b 84 24 00 04 00 	mov    0x400(%rsp),%r8
    2c54:	00 
    2c55:	41 0f b6 40 02       	movzbl 0x2(%r8),%eax
    2c5a:	4c 8b 84 24 f8 03 00 	mov    0x3f8(%rsp),%r8
    2c61:	00 
    2c62:	c4 c1 79 61 c4       	vpunpcklwd %xmm12,%xmm0,%xmm0
    2c67:	c5 f9 6e f8          	vmovd  %eax,%xmm7
    2c6b:	c4 43 41 20 50 02 01 	vpinsrb $0x1,0x2(%r8),%xmm7,%xmm10
    2c72:	4c 8b 84 24 f0 03 00 	mov    0x3f0(%rsp),%r8
    2c79:	00 
    2c7a:	41 0f b6 40 02       	movzbl 0x2(%r8),%eax
    2c7f:	4c 8b 84 24 e8 03 00 	mov    0x3e8(%rsp),%r8
    2c86:	00 
    2c87:	c5 f9 6e f8          	vmovd  %eax,%xmm7
    2c8b:	c4 c3 41 20 78 02 01 	vpinsrb $0x1,0x2(%r8),%xmm7,%xmm7
    2c92:	4c 8b 84 24 e0 03 00 	mov    0x3e0(%rsp),%r8
    2c99:	00 
    2c9a:	c5 a9 61 ff          	vpunpcklwd %xmm7,%xmm10,%xmm7
    2c9e:	41 0f b6 40 02       	movzbl 0x2(%r8),%eax
    2ca3:	4c 8b 84 24 d8 03 00 	mov    0x3d8(%rsp),%r8
    2caa:	00 
    2cab:	c5 f9 62 c7          	vpunpckldq %xmm7,%xmm0,%xmm0
    2caf:	c5 49 6c c8          	vpunpcklqdq %xmm0,%xmm6,%xmm9
    2cb3:	c5 f9 6e c0          	vmovd  %eax,%xmm0
    2cb7:	c4 c3 79 20 40 02 01 	vpinsrb $0x1,0x2(%r8),%xmm0,%xmm0
    2cbe:	4c 8b 84 24 d0 03 00 	mov    0x3d0(%rsp),%r8
    2cc5:	00 
    2cc6:	41 0f b6 40 02       	movzbl 0x2(%r8),%eax
    2ccb:	4c 8b 84 24 c8 03 00 	mov    0x3c8(%rsp),%r8
    2cd2:	00 
    2cd3:	c5 79 6e c0          	vmovd  %eax,%xmm8
    2cd7:	c4 43 39 20 40 02 01 	vpinsrb $0x1,0x2(%r8),%xmm8,%xmm8
    2cde:	4c 8b 84 24 c0 03 00 	mov    0x3c0(%rsp),%r8
    2ce5:	00 
    2ce6:	4c 8b 9c 24 60 07 00 	mov    0x760(%rsp),%r11
    2ced:	00 
    2cee:	41 0f b6 40 02       	movzbl 0x2(%r8),%eax
    2cf3:	4c 8b 84 24 b8 03 00 	mov    0x3b8(%rsp),%r8
    2cfa:	00 
    2cfb:	c4 c1 79 61 c0       	vpunpcklwd %xmm8,%xmm0,%xmm0
    2d00:	c5 79 6e d8          	vmovd  %eax,%xmm11
    2d04:	c4 43 21 20 58 02 01 	vpinsrb $0x1,0x2(%r8),%xmm11,%xmm11
    2d0b:	4c 8b 84 24 b0 03 00 	mov    0x3b0(%rsp),%r8
    2d12:	00 
    2d13:	41 0f b6 40 02       	movzbl 0x2(%r8),%eax
    2d18:	4c 8b 84 24 a8 03 00 	mov    0x3a8(%rsp),%r8
    2d1f:	00 
    2d20:	c5 f9 6e f8          	vmovd  %eax,%xmm7
    2d24:	c4 c3 41 20 78 02 01 	vpinsrb $0x1,0x2(%r8),%xmm7,%xmm7
    2d2b:	4c 8b 84 24 a0 03 00 	mov    0x3a0(%rsp),%r8
    2d32:	00 
    2d33:	41 0f b6 40 02       	movzbl 0x2(%r8),%eax
    2d38:	4c 8b 84 24 98 03 00 	mov    0x398(%rsp),%r8
    2d3f:	00 
    2d40:	c5 21 61 c7          	vpunpcklwd %xmm7,%xmm11,%xmm8
    2d44:	c4 c1 79 62 c0       	vpunpckldq %xmm8,%xmm0,%xmm0
    2d49:	c5 f9 6e f0          	vmovd  %eax,%xmm6
    2d4d:	c4 c3 49 20 70 02 01 	vpinsrb $0x1,0x2(%r8),%xmm6,%xmm6
    2d54:	4c 8b 84 24 90 03 00 	mov    0x390(%rsp),%r8
    2d5b:	00 
    2d5c:	41 0f b6 40 02       	movzbl 0x2(%r8),%eax
    2d61:	4c 8b 84 24 88 03 00 	mov    0x388(%rsp),%r8
    2d68:	00 
    2d69:	c5 79 6e e8          	vmovd  %eax,%xmm13
    2d6d:	c4 43 11 20 68 02 01 	vpinsrb $0x1,0x2(%r8),%xmm13,%xmm13
    2d74:	4c 8b 84 24 80 03 00 	mov    0x380(%rsp),%r8
    2d7b:	00 
    2d7c:	41 0f b6 40 02       	movzbl 0x2(%r8),%eax
    2d81:	4c 8b 84 24 78 03 00 	mov    0x378(%rsp),%r8
    2d88:	00 
    2d89:	c4 c1 49 61 f5       	vpunpcklwd %xmm13,%xmm6,%xmm6
    2d8e:	c5 79 6e d0          	vmovd  %eax,%xmm10
    2d92:	c4 43 29 20 50 02 01 	vpinsrb $0x1,0x2(%r8),%xmm10,%xmm10
    2d99:	4c 8b 84 24 70 03 00 	mov    0x370(%rsp),%r8
    2da0:	00 
    2da1:	41 0f b6 40 02       	movzbl 0x2(%r8),%eax
    2da6:	c5 79 6e e0          	vmovd  %eax,%xmm12
    2daa:	c4 03 19 20 64 38 02 	vpinsrb $0x1,0x2(%r8,%r15,1),%xmm12,%xmm12
    2db1:	01 
    2db2:	41 0f b6 43 03       	movzbl 0x3(%r11),%eax
    2db7:	4c 8b 84 24 68 03 00 	mov    0x368(%rsp),%r8
    2dbe:	00 
    2dbf:	c4 c1 29 61 fc       	vpunpcklwd %xmm12,%xmm10,%xmm7
    2dc4:	c5 c9 62 f7          	vpunpckldq %xmm7,%xmm6,%xmm6
    2dc8:	c5 f9 6c c6          	vpunpcklqdq %xmm6,%xmm0,%xmm0
    2dcc:	c4 e3 35 38 f0 01    	vinserti128 $0x1,%xmm0,%ymm9,%ymm6
    2dd2:	c5 d5 fc ee          	vpaddb %ymm6,%ymm5,%ymm5
    2dd6:	c5 f5 fc cd          	vpaddb %ymm5,%ymm1,%ymm1
    2dda:	c5 f9 6e e8          	vmovd  %eax,%xmm5
    2dde:	c4 c3 51 20 68 03 01 	vpinsrb $0x1,0x3(%r8),%xmm5,%xmm5
    2de5:	4c 8b 84 24 60 03 00 	mov    0x360(%rsp),%r8
    2dec:	00 
    2ded:	41 0f b6 40 03       	movzbl 0x3(%r8),%eax
    2df2:	4c 8b 84 24 58 03 00 	mov    0x358(%rsp),%r8
    2df9:	00 
    2dfa:	c5 79 6e d0          	vmovd  %eax,%xmm10
    2dfe:	c4 43 29 20 50 03 01 	vpinsrb $0x1,0x3(%r8),%xmm10,%xmm10
    2e05:	4c 8b 84 24 50 03 00 	mov    0x350(%rsp),%r8
    2e0c:	00 
    2e0d:	41 0f b6 40 03       	movzbl 0x3(%r8),%eax
    2e12:	4c 8b 84 24 48 03 00 	mov    0x348(%rsp),%r8
    2e19:	00 
    2e1a:	c4 c1 51 61 ea       	vpunpcklwd %xmm10,%xmm5,%xmm5
    2e1f:	c5 79 6e c8          	vmovd  %eax,%xmm9
    2e23:	c4 43 31 20 58 03 01 	vpinsrb $0x1,0x3(%r8),%xmm9,%xmm11
    2e2a:	4c 8b 84 24 40 03 00 	mov    0x340(%rsp),%r8
    2e31:	00 
    2e32:	41 0f b6 40 03       	movzbl 0x3(%r8),%eax
    2e37:	4c 8b 84 24 38 03 00 	mov    0x338(%rsp),%r8
    2e3e:	00 
    2e3f:	c5 79 6e c8          	vmovd  %eax,%xmm9
    2e43:	c4 43 31 20 48 03 01 	vpinsrb $0x1,0x3(%r8),%xmm9,%xmm9
    2e4a:	4c 8b 84 24 30 03 00 	mov    0x330(%rsp),%r8
    2e51:	00 
    2e52:	41 0f b6 40 03       	movzbl 0x3(%r8),%eax
    2e57:	4c 8b 84 24 28 03 00 	mov    0x328(%rsp),%r8
    2e5e:	00 
    2e5f:	c4 41 21 61 c9       	vpunpcklwd %xmm9,%xmm11,%xmm9
    2e64:	c4 c1 51 62 e9       	vpunpckldq %xmm9,%xmm5,%xmm5
    2e69:	c5 f9 6e f0          	vmovd  %eax,%xmm6
    2e6d:	c4 c3 49 20 70 03 01 	vpinsrb $0x1,0x3(%r8),%xmm6,%xmm6
    2e74:	4c 8b 84 24 20 03 00 	mov    0x320(%rsp),%r8
    2e7b:	00 
    2e7c:	41 0f b6 40 03       	movzbl 0x3(%r8),%eax
    2e81:	4c 8b 84 24 18 03 00 	mov    0x318(%rsp),%r8
    2e88:	00 
    2e89:	c5 79 6e c0          	vmovd  %eax,%xmm8
    2e8d:	c4 43 39 20 40 03 01 	vpinsrb $0x1,0x3(%r8),%xmm8,%xmm8
    2e94:	4c 8b 84 24 10 03 00 	mov    0x310(%rsp),%r8
    2e9b:	00 
    2e9c:	41 0f b6 40 03       	movzbl 0x3(%r8),%eax
    2ea1:	4c 8b 84 24 08 03 00 	mov    0x308(%rsp),%r8
    2ea8:	00 
    2ea9:	c4 c1 49 61 f0       	vpunpcklwd %xmm8,%xmm6,%xmm6
    2eae:	c5 f9 6e c0          	vmovd  %eax,%xmm0
    2eb2:	c4 c3 79 20 40 03 01 	vpinsrb $0x1,0x3(%r8),%xmm0,%xmm0
    2eb9:	4c 8b 84 24 00 03 00 	mov    0x300(%rsp),%r8
    2ec0:	00 
    2ec1:	41 0f b6 40 03       	movzbl 0x3(%r8),%eax
    2ec6:	4c 8b 84 24 f8 02 00 	mov    0x2f8(%rsp),%r8
    2ecd:	00 
    2ece:	c5 f9 6e f8          	vmovd  %eax,%xmm7
    2ed2:	c4 c3 41 20 78 03 01 	vpinsrb $0x1,0x3(%r8),%xmm7,%xmm7
    2ed9:	4c 8b 84 24 f0 02 00 	mov    0x2f0(%rsp),%r8
    2ee0:	00 
    2ee1:	c5 f9 61 c7          	vpunpcklwd %xmm7,%xmm0,%xmm0
    2ee5:	41 0f b6 40 03       	movzbl 0x3(%r8),%eax
    2eea:	4c 8b 84 24 e8 02 00 	mov    0x2e8(%rsp),%r8
    2ef1:	00 
    2ef2:	c5 c9 62 c0          	vpunpckldq %xmm0,%xmm6,%xmm0
    2ef6:	c5 d1 6c e8          	vpunpcklqdq %xmm0,%xmm5,%xmm5
    2efa:	c5 f9 6e c0          	vmovd  %eax,%xmm0
    2efe:	c4 c3 79 20 40 03 01 	vpinsrb $0x1,0x3(%r8),%xmm0,%xmm0
    2f05:	4c 8b 84 24 e0 02 00 	mov    0x2e0(%rsp),%r8
    2f0c:	00 
    2f0d:	41 0f b6 40 03       	movzbl 0x3(%r8),%eax
    2f12:	4c 8b 84 24 d8 02 00 	mov    0x2d8(%rsp),%r8
    2f19:	00 
    2f1a:	c5 79 6e c8          	vmovd  %eax,%xmm9
    2f1e:	c4 43 31 20 48 03 01 	vpinsrb $0x1,0x3(%r8),%xmm9,%xmm9
    2f25:	4c 8b 84 24 d0 02 00 	mov    0x2d0(%rsp),%r8
    2f2c:	00 
    2f2d:	41 0f b6 40 03       	movzbl 0x3(%r8),%eax
    2f32:	4c 8b 84 24 c8 02 00 	mov    0x2c8(%rsp),%r8
    2f39:	00 
    2f3a:	c4 c1 79 61 c1       	vpunpcklwd %xmm9,%xmm0,%xmm0
    2f3f:	4c 8b b4 24 58 07 00 	mov    0x758(%rsp),%r14
    2f46:	00 
    2f47:	c5 79 6e c0          	vmovd  %eax,%xmm8
    2f4b:	c4 43 39 20 58 03 01 	vpinsrb $0x1,0x3(%r8),%xmm8,%xmm11
    2f52:	4c 8b 84 24 c0 02 00 	mov    0x2c0(%rsp),%r8
    2f59:	00 
    2f5a:	41 0f b6 40 03       	movzbl 0x3(%r8),%eax
    2f5f:	4c 8b 84 24 b8 02 00 	mov    0x2b8(%rsp),%r8
    2f66:	00 
    2f67:	c5 79 6e c0          	vmovd  %eax,%xmm8
    2f6b:	c4 43 39 20 40 03 01 	vpinsrb $0x1,0x3(%r8),%xmm8,%xmm8
    2f72:	4c 8b 84 24 b0 02 00 	mov    0x2b0(%rsp),%r8
    2f79:	00 
    2f7a:	41 0f b6 40 03       	movzbl 0x3(%r8),%eax
    2f7f:	4c 8b 84 24 a8 02 00 	mov    0x2a8(%rsp),%r8
    2f86:	00 
    2f87:	c4 41 21 61 c0       	vpunpcklwd %xmm8,%xmm11,%xmm8
    2f8c:	c4 c1 79 62 c0       	vpunpckldq %xmm8,%xmm0,%xmm0
    2f91:	c5 f9 6e f0          	vmovd  %eax,%xmm6
    2f95:	c4 c3 49 20 70 03 01 	vpinsrb $0x1,0x3(%r8),%xmm6,%xmm6
    2f9c:	4c 8b 84 24 a0 02 00 	mov    0x2a0(%rsp),%r8
    2fa3:	00 
    2fa4:	41 0f b6 40 03       	movzbl 0x3(%r8),%eax
    2fa9:	4c 8b 84 24 98 02 00 	mov    0x298(%rsp),%r8
    2fb0:	00 
    2fb1:	c5 79 6e e0          	vmovd  %eax,%xmm12
    2fb5:	c4 43 19 20 60 03 01 	vpinsrb $0x1,0x3(%r8),%xmm12,%xmm12
    2fbc:	4c 8b 84 24 90 02 00 	mov    0x290(%rsp),%r8
    2fc3:	00 
    2fc4:	41 0f b6 40 03       	movzbl 0x3(%r8),%eax
    2fc9:	4c 8b 84 24 88 02 00 	mov    0x288(%rsp),%r8
    2fd0:	00 
    2fd1:	c4 c1 49 61 f4       	vpunpcklwd %xmm12,%xmm6,%xmm6
    2fd6:	c5 f9 6e f8          	vmovd  %eax,%xmm7
    2fda:	c4 43 41 20 50 03 01 	vpinsrb $0x1,0x3(%r8),%xmm7,%xmm10
    2fe1:	4c 8b 84 24 80 02 00 	mov    0x280(%rsp),%r8
    2fe8:	00 
    2fe9:	41 0f b6 40 03       	movzbl 0x3(%r8),%eax
    2fee:	c5 f9 6e f8          	vmovd  %eax,%xmm7
    2ff2:	c4 83 41 20 7c 38 03 	vpinsrb $0x1,0x3(%r8,%r15,1),%xmm7,%xmm7
    2ff9:	01 
    2ffa:	41 0f b6 46 01       	movzbl 0x1(%r14),%eax
    2fff:	4c 8b 84 24 78 02 00 	mov    0x278(%rsp),%r8
    3006:	00 
    3007:	c5 a9 61 ff          	vpunpcklwd %xmm7,%xmm10,%xmm7
    300b:	c5 c9 62 f7          	vpunpckldq %xmm7,%xmm6,%xmm6
    300f:	c5 f9 6c c6          	vpunpcklqdq %xmm6,%xmm0,%xmm0
    3013:	c5 f9 6e f0          	vmovd  %eax,%xmm6
    3017:	c4 c3 49 20 70 01 01 	vpinsrb $0x1,0x1(%r8),%xmm6,%xmm6
    301e:	4c 8b 84 24 70 02 00 	mov    0x270(%rsp),%r8
    3025:	00 
    3026:	c4 e3 55 38 e8 01    	vinserti128 $0x1,%xmm0,%ymm5,%ymm5
    302c:	41 0f b6 40 01       	movzbl 0x1(%r8),%eax
    3031:	4c 8b 84 24 68 02 00 	mov    0x268(%rsp),%r8
    3038:	00 
    3039:	c5 79 6e c8          	vmovd  %eax,%xmm9
    303d:	c4 43 31 20 48 01 01 	vpinsrb $0x1,0x1(%r8),%xmm9,%xmm9
    3044:	4c 8b 84 24 60 02 00 	mov    0x260(%rsp),%r8
    304b:	00 
    304c:	41 0f b6 40 01       	movzbl 0x1(%r8),%eax
    3051:	4c 8b 84 24 58 02 00 	mov    0x258(%rsp),%r8
    3058:	00 
    3059:	c4 c1 49 61 f1       	vpunpcklwd %xmm9,%xmm6,%xmm6
    305e:	c5 79 6e c0          	vmovd  %eax,%xmm8
    3062:	c4 43 39 20 58 01 01 	vpinsrb $0x1,0x1(%r8),%xmm8,%xmm11
    3069:	4c 8b 84 24 50 02 00 	mov    0x250(%rsp),%r8
    3070:	00 
    3071:	41 0f b6 40 01       	movzbl 0x1(%r8),%eax
    3076:	4c 8b 84 24 48 02 00 	mov    0x248(%rsp),%r8
    307d:	00 
    307e:	c5 79 6e c0          	vmovd  %eax,%xmm8
    3082:	c4 43 39 20 40 01 01 	vpinsrb $0x1,0x1(%r8),%xmm8,%xmm8
    3089:	4c 8b 84 24 40 02 00 	mov    0x240(%rsp),%r8
    3090:	00 
    3091:	41 0f b6 40 01       	movzbl 0x1(%r8),%eax
    3096:	4c 8b 84 24 38 02 00 	mov    0x238(%rsp),%r8
    309d:	00 
    309e:	c4 41 21 61 c0       	vpunpcklwd %xmm8,%xmm11,%xmm8
    30a3:	c4 c1 49 62 f0       	vpunpckldq %xmm8,%xmm6,%xmm6
    30a8:	c5 f9 6e c0          	vmovd  %eax,%xmm0
    30ac:	c4 c3 79 20 40 01 01 	vpinsrb $0x1,0x1(%r8),%xmm0,%xmm0
    30b3:	4c 8b 84 24 30 02 00 	mov    0x230(%rsp),%r8
    30ba:	00 
    30bb:	41 0f b6 40 01       	movzbl 0x1(%r8),%eax
    30c0:	4c 8b 84 24 28 02 00 	mov    0x228(%rsp),%r8
    30c7:	00 
    30c8:	c5 79 6e e0          	vmovd  %eax,%xmm12
    30cc:	c4 43 19 20 60 01 01 	vpinsrb $0x1,0x1(%r8),%xmm12,%xmm12
    30d3:	4c 8b 84 24 20 02 00 	mov    0x220(%rsp),%r8
    30da:	00 
    30db:	41 0f b6 40 01       	movzbl 0x1(%r8),%eax
    30e0:	4c 8b 84 24 18 02 00 	mov    0x218(%rsp),%r8
    30e7:	00 
    30e8:	c4 c1 79 61 c4       	vpunpcklwd %xmm12,%xmm0,%xmm0
    30ed:	c5 f9 6e f8          	vmovd  %eax,%xmm7
    30f1:	c4 43 41 20 50 01 01 	vpinsrb $0x1,0x1(%r8),%xmm7,%xmm10
    30f8:	4c 8b 84 24 10 02 00 	mov    0x210(%rsp),%r8
    30ff:	00 
    3100:	41 0f b6 40 01       	movzbl 0x1(%r8),%eax
    3105:	4c 8b 84 24 08 02 00 	mov    0x208(%rsp),%r8
    310c:	00 
    310d:	c5 f9 6e f8          	vmovd  %eax,%xmm7
    3111:	c4 c3 41 20 78 01 01 	vpinsrb $0x1,0x1(%r8),%xmm7,%xmm7
    3118:	4c 8b 84 24 00 02 00 	mov    0x200(%rsp),%r8
    311f:	00 
    3120:	c5 a9 61 ff          	vpunpcklwd %xmm7,%xmm10,%xmm7
    3124:	41 0f b6 40 01       	movzbl 0x1(%r8),%eax
    3129:	4c 8b 84 24 f8 01 00 	mov    0x1f8(%rsp),%r8
    3130:	00 
    3131:	c5 f9 62 c7          	vpunpckldq %xmm7,%xmm0,%xmm0
    3135:	c5 49 6c c8          	vpunpcklqdq %xmm0,%xmm6,%xmm9
    3139:	c5 f9 6e c0          	vmovd  %eax,%xmm0
    313d:	c4 c3 79 20 40 01 01 	vpinsrb $0x1,0x1(%r8),%xmm0,%xmm0
    3144:	4c 8b 84 24 f0 01 00 	mov    0x1f0(%rsp),%r8
    314b:	00 
    314c:	41 0f b6 40 01       	movzbl 0x1(%r8),%eax
    3151:	4c 8b 84 24 e8 01 00 	mov    0x1e8(%rsp),%r8
    3158:	00 
    3159:	c5 79 6e c0          	vmovd  %eax,%xmm8
    315d:	c4 43 39 20 40 01 01 	vpinsrb $0x1,0x1(%r8),%xmm8,%xmm8
    3164:	4c 8b 84 24 e0 01 00 	mov    0x1e0(%rsp),%r8
    316b:	00 
    316c:	41 0f b6 40 01       	movzbl 0x1(%r8),%eax
    3171:	4c 8b 84 24 d8 01 00 	mov    0x1d8(%rsp),%r8
    3178:	00 
    3179:	c4 c1 79 61 c0       	vpunpcklwd %xmm8,%xmm0,%xmm0
    317e:	4c 8b 8c 24 50 07 00 	mov    0x750(%rsp),%r9
    3185:	00 
    3186:	c5 79 6e d8          	vmovd  %eax,%xmm11
    318a:	c4 43 21 20 58 01 01 	vpinsrb $0x1,0x1(%r8),%xmm11,%xmm11
    3191:	4c 8b 84 24 d0 01 00 	mov    0x1d0(%rsp),%r8
    3198:	00 
    3199:	41 0f b6 40 01       	movzbl 0x1(%r8),%eax
    319e:	4c 8b 84 24 c8 01 00 	mov    0x1c8(%rsp),%r8
    31a5:	00 
    31a6:	c5 f9 6e f8          	vmovd  %eax,%xmm7
    31aa:	c4 c3 41 20 78 01 01 	vpinsrb $0x1,0x1(%r8),%xmm7,%xmm7
    31b1:	4c 8b 84 24 c0 01 00 	mov    0x1c0(%rsp),%r8
    31b8:	00 
    31b9:	41 0f b6 40 01       	movzbl 0x1(%r8),%eax
    31be:	4c 8b 84 24 b8 01 00 	mov    0x1b8(%rsp),%r8
    31c5:	00 
    31c6:	c5 21 61 c7          	vpunpcklwd %xmm7,%xmm11,%xmm8
    31ca:	c4 c1 79 62 c0       	vpunpckldq %xmm8,%xmm0,%xmm0
    31cf:	c5 f9 6e f0          	vmovd  %eax,%xmm6
    31d3:	c4 c3 49 20 70 01 01 	vpinsrb $0x1,0x1(%r8),%xmm6,%xmm6
    31da:	4c 8b 84 24 b0 01 00 	mov    0x1b0(%rsp),%r8
    31e1:	00 
    31e2:	41 0f b6 40 01       	movzbl 0x1(%r8),%eax
    31e7:	4c 8b 84 24 a8 01 00 	mov    0x1a8(%rsp),%r8
    31ee:	00 
    31ef:	c5 79 6e e8          	vmovd  %eax,%xmm13
    31f3:	c4 43 11 20 68 01 01 	vpinsrb $0x1,0x1(%r8),%xmm13,%xmm13
    31fa:	4c 8b 84 24 a0 01 00 	mov    0x1a0(%rsp),%r8
    3201:	00 
    3202:	41 0f b6 40 01       	movzbl 0x1(%r8),%eax
    3207:	4c 8b 84 24 98 01 00 	mov    0x198(%rsp),%r8
    320e:	00 
    320f:	c4 c1 49 61 f5       	vpunpcklwd %xmm13,%xmm6,%xmm6
    3214:	c5 79 6e d0          	vmovd  %eax,%xmm10
    3218:	c4 43 29 20 50 01 01 	vpinsrb $0x1,0x1(%r8),%xmm10,%xmm10
    321f:	4c 8b 84 24 90 01 00 	mov    0x190(%rsp),%r8
    3226:	00 
    3227:	41 0f b6 40 01       	movzbl 0x1(%r8),%eax
    322c:	c5 79 6e e0          	vmovd  %eax,%xmm12
    3230:	c4 03 19 20 64 38 01 	vpinsrb $0x1,0x1(%r8,%r15,1),%xmm12,%xmm12
    3237:	01 
    3238:	41 0f b6 41 01       	movzbl 0x1(%r9),%eax
    323d:	4c 8b 84 24 88 01 00 	mov    0x188(%rsp),%r8
    3244:	00 
    3245:	c4 c1 29 61 fc       	vpunpcklwd %xmm12,%xmm10,%xmm7
    324a:	c5 c9 62 f7          	vpunpckldq %xmm7,%xmm6,%xmm6
    324e:	c5 f9 6c c6          	vpunpcklqdq %xmm6,%xmm0,%xmm0
    3252:	c4 e3 35 38 f0 01    	vinserti128 $0x1,%xmm0,%ymm9,%ymm6
    3258:	c5 d5 fc ee          	vpaddb %ymm6,%ymm5,%ymm5
    325c:	c5 f5 fc cd          	vpaddb %ymm5,%ymm1,%ymm1
    3260:	c5 f9 6e e8          	vmovd  %eax,%xmm5
    3264:	c4 c3 51 20 68 01 01 	vpinsrb $0x1,0x1(%r8),%xmm5,%xmm5
    326b:	4c 8b 84 24 80 01 00 	mov    0x180(%rsp),%r8
    3272:	00 
    3273:	41 0f b6 40 01       	movzbl 0x1(%r8),%eax
    3278:	4c 8b 84 24 78 01 00 	mov    0x178(%rsp),%r8
    327f:	00 
    3280:	c5 79 6e d0          	vmovd  %eax,%xmm10
    3284:	c4 43 29 20 50 01 01 	vpinsrb $0x1,0x1(%r8),%xmm10,%xmm10
    328b:	4c 8b 84 24 70 01 00 	mov    0x170(%rsp),%r8
    3292:	00 
    3293:	41 0f b6 40 01       	movzbl 0x1(%r8),%eax
    3298:	4c 8b 84 24 68 01 00 	mov    0x168(%rsp),%r8
    329f:	00 
    32a0:	c4 c1 51 61 ea       	vpunpcklwd %xmm10,%xmm5,%xmm5
    32a5:	c5 79 6e c8          	vmovd  %eax,%xmm9
    32a9:	c4 43 31 20 58 01 01 	vpinsrb $0x1,0x1(%r8),%xmm9,%xmm11
    32b0:	4c 8b 84 24 60 01 00 	mov    0x160(%rsp),%r8
    32b7:	00 
    32b8:	41 0f b6 40 01       	movzbl 0x1(%r8),%eax
    32bd:	4c 8b 84 24 58 01 00 	mov    0x158(%rsp),%r8
    32c4:	00 
    32c5:	c5 79 6e c8          	vmovd  %eax,%xmm9
    32c9:	c4 43 31 20 48 01 01 	vpinsrb $0x1,0x1(%r8),%xmm9,%xmm9
    32d0:	4c 8b 84 24 50 01 00 	mov    0x150(%rsp),%r8
    32d7:	00 
    32d8:	41 0f b6 40 01       	movzbl 0x1(%r8),%eax
    32dd:	4c 8b 84 24 48 01 00 	mov    0x148(%rsp),%r8
    32e4:	00 
    32e5:	c4 41 21 61 c9       	vpunpcklwd %xmm9,%xmm11,%xmm9
    32ea:	c4 c1 51 62 e9       	vpunpckldq %xmm9,%xmm5,%xmm5
    32ef:	c5 f9 6e f0          	vmovd  %eax,%xmm6
    32f3:	c4 c3 49 20 70 01 01 	vpinsrb $0x1,0x1(%r8),%xmm6,%xmm6
    32fa:	4c 8b 84 24 40 01 00 	mov    0x140(%rsp),%r8
    3301:	00 
    3302:	41 0f b6 40 01       	movzbl 0x1(%r8),%eax
    3307:	4c 8b 84 24 38 01 00 	mov    0x138(%rsp),%r8
    330e:	00 
    330f:	c5 79 6e c0          	vmovd  %eax,%xmm8
    3313:	c4 43 39 20 40 01 01 	vpinsrb $0x1,0x1(%r8),%xmm8,%xmm8
    331a:	4c 8b 84 24 30 01 00 	mov    0x130(%rsp),%r8
    3321:	00 
    3322:	41 0f b6 40 01       	movzbl 0x1(%r8),%eax
    3327:	4c 8b 84 24 28 01 00 	mov    0x128(%rsp),%r8
    332e:	00 
    332f:	c4 c1 49 61 f0       	vpunpcklwd %xmm8,%xmm6,%xmm6
    3334:	c5 f9 6e c0          	vmovd  %eax,%xmm0
    3338:	c4 c3 79 20 40 01 01 	vpinsrb $0x1,0x1(%r8),%xmm0,%xmm0
    333f:	4c 8b 84 24 20 01 00 	mov    0x120(%rsp),%r8
    3346:	00 
    3347:	41 0f b6 40 01       	movzbl 0x1(%r8),%eax
    334c:	4c 8b 84 24 18 01 00 	mov    0x118(%rsp),%r8
    3353:	00 
    3354:	c5 f9 6e f8          	vmovd  %eax,%xmm7
    3358:	c4 c3 41 20 78 01 01 	vpinsrb $0x1,0x1(%r8),%xmm7,%xmm7
    335f:	4c 8b 84 24 10 01 00 	mov    0x110(%rsp),%r8
    3366:	00 
    3367:	c5 f9 61 c7          	vpunpcklwd %xmm7,%xmm0,%xmm0
    336b:	41 0f b6 40 01       	movzbl 0x1(%r8),%eax
    3370:	4c 8b 84 24 08 01 00 	mov    0x108(%rsp),%r8
    3377:	00 
    3378:	c5 c9 62 c0          	vpunpckldq %xmm0,%xmm6,%xmm0
    337c:	c5 d1 6c e8          	vpunpcklqdq %xmm0,%xmm5,%xmm5
    3380:	c5 f9 6e c0          	vmovd  %eax,%xmm0
    3384:	c4 c3 79 20 40 01 01 	vpinsrb $0x1,0x1(%r8),%xmm0,%xmm0
    338b:	4c 8b 84 24 00 01 00 	mov    0x100(%rsp),%r8
    3392:	00 
    3393:	41 0f b6 40 01       	movzbl 0x1(%r8),%eax
    3398:	4c 8b 84 24 f8 00 00 	mov    0xf8(%rsp),%r8
    339f:	00 
    33a0:	c5 79 6e c8          	vmovd  %eax,%xmm9
    33a4:	c4 43 31 20 48 01 01 	vpinsrb $0x1,0x1(%r8),%xmm9,%xmm9
    33ab:	4c 8b 84 24 f0 00 00 	mov    0xf0(%rsp),%r8
    33b2:	00 
    33b3:	41 0f b6 40 01       	movzbl 0x1(%r8),%eax
    33b8:	4c 8b 84 24 e8 00 00 	mov    0xe8(%rsp),%r8
    33bf:	00 
    33c0:	c4 c1 79 61 c1       	vpunpcklwd %xmm9,%xmm0,%xmm0
    33c5:	c5 79 6e c0          	vmovd  %eax,%xmm8
    33c9:	c4 43 39 20 58 01 01 	vpinsrb $0x1,0x1(%r8),%xmm8,%xmm11
    33d0:	4c 8b 84 24 e0 00 00 	mov    0xe0(%rsp),%r8
    33d7:	00 
    33d8:	4c 8b 94 24 48 07 00 	mov    0x748(%rsp),%r10
    33df:	00 
    33e0:	41 0f b6 40 01       	movzbl 0x1(%r8),%eax
    33e5:	4c 8b 84 24 d8 00 00 	mov    0xd8(%rsp),%r8
    33ec:	00 
    33ed:	c5 79 6e c0          	vmovd  %eax,%xmm8
    33f1:	c4 43 39 20 40 01 01 	vpinsrb $0x1,0x1(%r8),%xmm8,%xmm8
    33f8:	4c 8b 84 24 d0 00 00 	mov    0xd0(%rsp),%r8
    33ff:	00 
    3400:	41 0f b6 40 01       	movzbl 0x1(%r8),%eax
    3405:	4c 8b 84 24 c8 00 00 	mov    0xc8(%rsp),%r8
    340c:	00 
    340d:	c4 41 21 61 c0       	vpunpcklwd %xmm8,%xmm11,%xmm8
    3412:	c4 c1 79 62 c0       	vpunpckldq %xmm8,%xmm0,%xmm0
    3417:	c5 f9 6e f0          	vmovd  %eax,%xmm6
    341b:	c4 c3 49 20 70 01 01 	vpinsrb $0x1,0x1(%r8),%xmm6,%xmm6
    3422:	4c 8b 84 24 c0 00 00 	mov    0xc0(%rsp),%r8
    3429:	00 
    342a:	41 0f b6 40 01       	movzbl 0x1(%r8),%eax
    342f:	4c 8b 84 24 b8 00 00 	mov    0xb8(%rsp),%r8
    3436:	00 
    3437:	c5 79 6e e0          	vmovd  %eax,%xmm12
    343b:	c4 43 19 20 60 01 01 	vpinsrb $0x1,0x1(%r8),%xmm12,%xmm12
    3442:	4c 8b 84 24 b0 00 00 	mov    0xb0(%rsp),%r8
    3449:	00 
    344a:	41 0f b6 40 01       	movzbl 0x1(%r8),%eax
    344f:	4c 8b 84 24 a8 00 00 	mov    0xa8(%rsp),%r8
    3456:	00 
    3457:	c4 c1 49 61 f4       	vpunpcklwd %xmm12,%xmm6,%xmm6
    345c:	c5 f9 6e f8          	vmovd  %eax,%xmm7
    3460:	c4 43 41 20 50 01 01 	vpinsrb $0x1,0x1(%r8),%xmm7,%xmm10
    3467:	4c 8b 84 24 a0 00 00 	mov    0xa0(%rsp),%r8
    346e:	00 
    346f:	41 0f b6 40 01       	movzbl 0x1(%r8),%eax
    3474:	c5 f9 6e f8          	vmovd  %eax,%xmm7
    3478:	c4 83 41 20 7c 38 01 	vpinsrb $0x1,0x1(%r8,%r15,1),%xmm7,%xmm7
    347f:	01 
    3480:	41 0f b6 42 01       	movzbl 0x1(%r10),%eax
    3485:	4c 8b 84 24 98 00 00 	mov    0x98(%rsp),%r8
    348c:	00 
    348d:	c5 a9 61 ff          	vpunpcklwd %xmm7,%xmm10,%xmm7
    3491:	c5 c9 62 f7          	vpunpckldq %xmm7,%xmm6,%xmm6
    3495:	c5 f9 6c c6          	vpunpcklqdq %xmm6,%xmm0,%xmm0
    3499:	c5 f9 6e f0          	vmovd  %eax,%xmm6
    349d:	c4 c3 49 20 70 01 01 	vpinsrb $0x1,0x1(%r8),%xmm6,%xmm6
    34a4:	4c 8b 84 24 90 00 00 	mov    0x90(%rsp),%r8
    34ab:	00 
    34ac:	c4 e3 55 38 e8 01    	vinserti128 $0x1,%xmm0,%ymm5,%ymm5
    34b2:	41 0f b6 40 01       	movzbl 0x1(%r8),%eax
    34b7:	4c 8b 84 24 88 00 00 	mov    0x88(%rsp),%r8
    34be:	00 
    34bf:	c5 79 6e c8          	vmovd  %eax,%xmm9
    34c3:	c4 43 31 20 48 01 01 	vpinsrb $0x1,0x1(%r8),%xmm9,%xmm9
    34ca:	4c 8b 84 24 80 00 00 	mov    0x80(%rsp),%r8
    34d1:	00 
    34d2:	41 0f b6 40 01       	movzbl 0x1(%r8),%eax
    34d7:	4c 8b 44 24 78       	mov    0x78(%rsp),%r8
    34dc:	c4 c1 49 61 f1       	vpunpcklwd %xmm9,%xmm6,%xmm6
    34e1:	c5 79 6e c0          	vmovd  %eax,%xmm8
    34e5:	c4 43 39 20 58 01 01 	vpinsrb $0x1,0x1(%r8),%xmm8,%xmm11
    34ec:	4c 8b 44 24 70       	mov    0x70(%rsp),%r8
    34f1:	41 0f b6 40 01       	movzbl 0x1(%r8),%eax
    34f6:	4c 8b 44 24 68       	mov    0x68(%rsp),%r8
    34fb:	c5 79 6e c0          	vmovd  %eax,%xmm8
    34ff:	c4 43 39 20 40 01 01 	vpinsrb $0x1,0x1(%r8),%xmm8,%xmm8
    3506:	4c 8b 44 24 60       	mov    0x60(%rsp),%r8
    350b:	41 0f b6 40 01       	movzbl 0x1(%r8),%eax
    3510:	4c 8b 44 24 58       	mov    0x58(%rsp),%r8
    3515:	c4 41 21 61 c0       	vpunpcklwd %xmm8,%xmm11,%xmm8
    351a:	c4 c1 49 62 f0       	vpunpckldq %xmm8,%xmm6,%xmm6
    351f:	c5 f9 6e c0          	vmovd  %eax,%xmm0
    3523:	c4 c3 79 20 40 01 01 	vpinsrb $0x1,0x1(%r8),%xmm0,%xmm0
    352a:	4c 8b 44 24 50       	mov    0x50(%rsp),%r8
    352f:	41 0f b6 40 01       	movzbl 0x1(%r8),%eax
    3534:	4c 8b 44 24 48       	mov    0x48(%rsp),%r8
    3539:	c5 79 6e e0          	vmovd  %eax,%xmm12
    353d:	c4 43 19 20 60 01 01 	vpinsrb $0x1,0x1(%r8),%xmm12,%xmm12
    3544:	4c 8b 44 24 40       	mov    0x40(%rsp),%r8
    3549:	41 0f b6 40 01       	movzbl 0x1(%r8),%eax
    354e:	4c 8b 44 24 38       	mov    0x38(%rsp),%r8
    3553:	c4 c1 79 61 c4       	vpunpcklwd %xmm12,%xmm0,%xmm0
    3558:	c5 f9 6e f8          	vmovd  %eax,%xmm7
    355c:	c4 43 41 20 50 01 01 	vpinsrb $0x1,0x1(%r8),%xmm7,%xmm10
    3563:	4c 8b 44 24 30       	mov    0x30(%rsp),%r8
    3568:	41 0f b6 40 01       	movzbl 0x1(%r8),%eax
    356d:	4c 8b 44 24 28       	mov    0x28(%rsp),%r8
    3572:	c5 f9 6e f8          	vmovd  %eax,%xmm7
    3576:	c4 c3 41 20 78 01 01 	vpinsrb $0x1,0x1(%r8),%xmm7,%xmm7
    357d:	4c 8b 44 24 20       	mov    0x20(%rsp),%r8
    3582:	c5 a9 61 ff          	vpunpcklwd %xmm7,%xmm10,%xmm7
    3586:	41 0f b6 40 01       	movzbl 0x1(%r8),%eax
    358b:	4c 8b 44 24 18       	mov    0x18(%rsp),%r8
    3590:	c5 f9 62 c7          	vpunpckldq %xmm7,%xmm0,%xmm0
    3594:	c5 49 6c c8          	vpunpcklqdq %xmm0,%xmm6,%xmm9
    3598:	c5 f9 6e c0          	vmovd  %eax,%xmm0
    359c:	c4 c3 79 20 40 01 01 	vpinsrb $0x1,0x1(%r8),%xmm0,%xmm0
    35a3:	4c 8b 44 24 10       	mov    0x10(%rsp),%r8
    35a8:	41 0f b6 40 01       	movzbl 0x1(%r8),%eax
    35ad:	4c 8b 44 24 08       	mov    0x8(%rsp),%r8
    35b2:	c5 79 6e c0          	vmovd  %eax,%xmm8
    35b6:	c4 43 39 20 40 01 01 	vpinsrb $0x1,0x1(%r8),%xmm8,%xmm8
    35bd:	4c 8b 04 24          	mov    (%rsp),%r8
    35c1:	41 0f b6 40 01       	movzbl 0x1(%r8),%eax
    35c6:	4c 8b 44 24 f8       	mov    -0x8(%rsp),%r8
    35cb:	c4 c1 79 61 c0       	vpunpcklwd %xmm8,%xmm0,%xmm0
    35d0:	c5 79 6e d8          	vmovd  %eax,%xmm11
    35d4:	c4 43 21 20 58 01 01 	vpinsrb $0x1,0x1(%r8),%xmm11,%xmm11
    35db:	4c 8b 44 24 f0       	mov    -0x10(%rsp),%r8
    35e0:	41 0f b6 40 01       	movzbl 0x1(%r8),%eax
    35e5:	4c 8b 44 24 e8       	mov    -0x18(%rsp),%r8
    35ea:	c5 f9 6e f8          	vmovd  %eax,%xmm7
    35ee:	c4 c3 41 20 78 01 01 	vpinsrb $0x1,0x1(%r8),%xmm7,%xmm7
    35f5:	4c 8b 44 24 e0       	mov    -0x20(%rsp),%r8
    35fa:	41 0f b6 40 01       	movzbl 0x1(%r8),%eax
    35ff:	4c 8b 44 24 d8       	mov    -0x28(%rsp),%r8
    3604:	c5 21 61 c7          	vpunpcklwd %xmm7,%xmm11,%xmm8
    3608:	c4 c1 79 62 c0       	vpunpckldq %xmm8,%xmm0,%xmm0
    360d:	c5 f9 6e f0          	vmovd  %eax,%xmm6
    3611:	c4 c3 49 20 70 01 01 	vpinsrb $0x1,0x1(%r8),%xmm6,%xmm6
    3618:	4c 8b 44 24 d0       	mov    -0x30(%rsp),%r8
    361d:	41 0f b6 40 01       	movzbl 0x1(%r8),%eax
    3622:	4c 8b 44 24 c8       	mov    -0x38(%rsp),%r8
    3627:	c5 79 6e e8          	vmovd  %eax,%xmm13
    362b:	c4 43 11 20 68 01 01 	vpinsrb $0x1,0x1(%r8),%xmm13,%xmm13
    3632:	4c 8b 44 24 c0       	mov    -0x40(%rsp),%r8
    3637:	41 0f b6 40 01       	movzbl 0x1(%r8),%eax
    363c:	4c 8b 44 24 b8       	mov    -0x48(%rsp),%r8
    3641:	c4 c1 49 61 f5       	vpunpcklwd %xmm13,%xmm6,%xmm6
    3646:	c5 79 6e d0          	vmovd  %eax,%xmm10
    364a:	c4 43 29 20 50 01 01 	vpinsrb $0x1,0x1(%r8),%xmm10,%xmm10
    3651:	4c 8b 44 24 b0       	mov    -0x50(%rsp),%r8
    3656:	41 0f b6 40 01       	movzbl 0x1(%r8),%eax
    365b:	c5 79 6e e0          	vmovd  %eax,%xmm12
    365f:	48 8b 84 24 40 07 00 	mov    0x740(%rsp),%rax
    3666:	00 
    3667:	c4 03 19 20 64 38 01 	vpinsrb $0x1,0x1(%r8,%r15,1),%xmm12,%xmm12
    366e:	01 
    366f:	4e 8d 34 38          	lea    (%rax,%r15,1),%r14
    3673:	c4 c1 29 61 fc       	vpunpcklwd %xmm12,%xmm10,%xmm7
    3678:	4f 8d 2c 3e          	lea    (%r14,%r15,1),%r13
    367c:	c5 c9 62 f7          	vpunpckldq %xmm7,%xmm6,%xmm6
    3680:	4b 8d 5c 3d 00       	lea    0x0(%r13,%r15,1),%rbx
    3685:	c5 f9 6c c6          	vpunpcklqdq %xmm6,%xmm0,%xmm0
    3689:	48 89 9c 24 d0 06 00 	mov    %rbx,0x6d0(%rsp)
    3690:	00 
    3691:	4c 01 fb             	add    %r15,%rbx
    3694:	c4 e3 35 38 f0 01    	vinserti128 $0x1,%xmm0,%ymm9,%ymm6
    369a:	4e 8d 1c 3b          	lea    (%rbx,%r15,1),%r11
    369e:	c5 d5 fc ee          	vpaddb %ymm6,%ymm5,%ymm5
    36a2:	4f 8d 14 3b          	lea    (%r11,%r15,1),%r10
    36a6:	c5 f5 fc c5          	vpaddb %ymm5,%ymm1,%ymm0
    36aa:	4f 8d 0c 3a          	lea    (%r10,%r15,1),%r9
    36ae:	c5 fd 74 f4          	vpcmpeqb %ymm4,%ymm0,%ymm6
    36b2:	4f 8d 04 39          	lea    (%r9,%r15,1),%r8
    36b6:	c5 fd 74 c3          	vpcmpeqb %ymm3,%ymm0,%ymm0
    36ba:	4b 8d 3c 38          	lea    (%r8,%r15,1),%rdi
    36be:	4a 8d 34 3f          	lea    (%rdi,%r15,1),%rsi
    36c2:	c5 cd db f2          	vpand  %ymm2,%ymm6,%ymm6
    36c6:	4a 8d 14 3e          	lea    (%rsi,%r15,1),%rdx
    36ca:	c5 fd db fa          	vpand  %ymm2,%ymm0,%ymm7
    36ce:	48 89 94 24 c8 06 00 	mov    %rdx,0x6c8(%rsp)
    36d5:	00 
    36d6:	4c 01 fa             	add    %r15,%rdx
    36d9:	4e 8d 24 3a          	lea    (%rdx,%r15,1),%r12
    36dd:	4c 89 a4 24 c0 06 00 	mov    %r12,0x6c0(%rsp)
    36e4:	00 
    36e5:	4d 01 fc             	add    %r15,%r12
    36e8:	4c 89 a4 24 b8 06 00 	mov    %r12,0x6b8(%rsp)
    36ef:	00 
    36f0:	4d 01 fc             	add    %r15,%r12
    36f3:	4c 89 a4 24 b0 06 00 	mov    %r12,0x6b0(%rsp)
    36fa:	00 
    36fb:	4d 01 fc             	add    %r15,%r12
    36fe:	4c 89 a4 24 a8 06 00 	mov    %r12,0x6a8(%rsp)
    3705:	00 
    3706:	4d 01 fc             	add    %r15,%r12
    3709:	4c 89 a4 24 a0 06 00 	mov    %r12,0x6a0(%rsp)
    3710:	00 
    3711:	4d 01 fc             	add    %r15,%r12
    3714:	4c 89 a4 24 98 06 00 	mov    %r12,0x698(%rsp)
    371b:	00 
    371c:	4d 01 fc             	add    %r15,%r12
    371f:	4c 89 a4 24 90 06 00 	mov    %r12,0x690(%rsp)
    3726:	00 
    3727:	4d 01 fc             	add    %r15,%r12
    372a:	4c 89 a4 24 88 06 00 	mov    %r12,0x688(%rsp)
    3731:	00 
    3732:	4d 01 fc             	add    %r15,%r12
    3735:	4c 89 a4 24 80 06 00 	mov    %r12,0x680(%rsp)
    373c:	00 
    373d:	4d 01 fc             	add    %r15,%r12
    3740:	4c 89 a4 24 78 06 00 	mov    %r12,0x678(%rsp)
    3747:	00 
    3748:	4d 01 fc             	add    %r15,%r12
    374b:	4c 89 a4 24 70 06 00 	mov    %r12,0x670(%rsp)
    3752:	00 
    3753:	0f b6 40 02          	movzbl 0x2(%rax),%eax
    3757:	4d 01 fc             	add    %r15,%r12
    375a:	4c 89 a4 24 68 06 00 	mov    %r12,0x668(%rsp)
    3761:	00 
    3762:	4d 01 fc             	add    %r15,%r12
    3765:	c5 f9 6e e8          	vmovd  %eax,%xmm5
    3769:	41 0f b6 45 02       	movzbl 0x2(%r13),%eax
    376e:	4c 89 a4 24 60 06 00 	mov    %r12,0x660(%rsp)
    3775:	00 
    3776:	4d 01 fc             	add    %r15,%r12
    3779:	4c 89 a4 24 58 06 00 	mov    %r12,0x658(%rsp)
    3780:	00 
    3781:	4d 01 fc             	add    %r15,%r12
    3784:	c4 c3 51 20 6e 02 01 	vpinsrb $0x1,0x2(%r14),%xmm5,%xmm5
    378b:	c5 79 6e c8          	vmovd  %eax,%xmm9
    378f:	0f b6 43 02          	movzbl 0x2(%rbx),%eax
    3793:	4c 89 a4 24 50 06 00 	mov    %r12,0x650(%rsp)
    379a:	00 
    379b:	4d 01 fc             	add    %r15,%r12
    379e:	4c 89 a4 24 48 06 00 	mov    %r12,0x648(%rsp)
    37a5:	00 
    37a6:	4d 01 fc             	add    %r15,%r12
    37a9:	4c 8b b4 24 d0 06 00 	mov    0x6d0(%rsp),%r14
    37b0:	00 
    37b1:	c5 79 6e d8          	vmovd  %eax,%xmm11
    37b5:	41 0f b6 42 02       	movzbl 0x2(%r10),%eax
    37ba:	4c 89 a4 24 40 06 00 	mov    %r12,0x640(%rsp)
    37c1:	00 
    37c2:	4d 01 fc             	add    %r15,%r12
    37c5:	4c 89 a4 24 38 06 00 	mov    %r12,0x638(%rsp)
    37cc:	00 
    37cd:	4c 8b a4 24 c0 06 00 	mov    0x6c0(%rsp),%r12
    37d4:	00 
    37d5:	c5 f9 6e c0          	vmovd  %eax,%xmm0
    37d9:	41 0f b6 40 02       	movzbl 0x2(%r8),%eax
    37de:	4c 8b 84 24 c8 06 00 	mov    0x6c8(%rsp),%r8
    37e5:	00 
    37e6:	c4 43 31 20 4e 02 01 	vpinsrb $0x1,0x2(%r14),%xmm9,%xmm9
    37ed:	c4 43 21 20 5b 02 01 	vpinsrb $0x1,0x2(%r11),%xmm11,%xmm11
    37f4:	c5 f9 6e c8          	vmovd  %eax,%xmm1
    37f8:	0f b6 46 02          	movzbl 0x2(%rsi),%eax
    37fc:	c4 c3 79 20 41 02 01 	vpinsrb $0x1,0x2(%r9),%xmm0,%xmm0
    3803:	c4 e3 71 20 4f 02 01 	vpinsrb $0x1,0x2(%rdi),%xmm1,%xmm1
    380a:	c4 c1 51 61 e9       	vpunpcklwd %xmm9,%xmm5,%xmm5
    380f:	c5 79 6e e0          	vmovd  %eax,%xmm12
    3813:	0f b6 42 02          	movzbl 0x2(%rdx),%eax
    3817:	c4 43 19 20 60 02 01 	vpinsrb $0x1,0x2(%r8),%xmm12,%xmm12
    381e:	c5 21 61 c8          	vpunpcklwd %xmm0,%xmm11,%xmm9
    3822:	c4 c1 51 62 e9       	vpunpckldq %xmm9,%xmm5,%xmm5
    3827:	c5 79 6e d0          	vmovd  %eax,%xmm10
    382b:	c4 43 29 20 54 24 02 	vpinsrb $0x1,0x2(%r12),%xmm10,%xmm10
    3832:	01 
    3833:	c4 c1 71 61 cc       	vpunpcklwd %xmm12,%xmm1,%xmm1
    3838:	4c 8b a4 24 b8 06 00 	mov    0x6b8(%rsp),%r12
    383f:	00 
    3840:	41 0f b6 44 24 02    	movzbl 0x2(%r12),%eax
    3846:	4c 8b a4 24 b0 06 00 	mov    0x6b0(%rsp),%r12
    384d:	00 
    384e:	c5 79 6e c0          	vmovd  %eax,%xmm8
    3852:	c4 43 39 20 44 24 02 	vpinsrb $0x1,0x2(%r12),%xmm8,%xmm8
    3859:	01 
    385a:	4c 8b a4 24 a8 06 00 	mov    0x6a8(%rsp),%r12
    3861:	00 
    3862:	c4 c1 29 61 c0       	vpunpcklwd %xmm8,%xmm10,%xmm0
    3867:	41 0f b6 44 24 02    	movzbl 0x2(%r12),%eax
    386d:	4c 8b a4 24 a0 06 00 	mov    0x6a0(%rsp),%r12
    3874:	00 
    3875:	c5 f1 62 c8          	vpunpckldq %xmm0,%xmm1,%xmm1
    3879:	c5 d1 6c c1          	vpunpcklqdq %xmm1,%xmm5,%xmm0
    387d:	c5 f9 6e c8          	vmovd  %eax,%xmm1
    3881:	c4 c3 71 20 4c 24 02 	vpinsrb $0x1,0x2(%r12),%xmm1,%xmm1
    3888:	01 
    3889:	4c 8b a4 24 98 06 00 	mov    0x698(%rsp),%r12
    3890:	00 
    3891:	4c 8b 84 24 38 06 00 	mov    0x638(%rsp),%r8
    3898:	00 
    3899:	41 0f b6 44 24 02    	movzbl 0x2(%r12),%eax
    389f:	4c 8b a4 24 90 06 00 	mov    0x690(%rsp),%r12
    38a6:	00 
    38a7:	c5 79 6e c8          	vmovd  %eax,%xmm9
    38ab:	c4 43 31 20 4c 24 02 	vpinsrb $0x1,0x2(%r12),%xmm9,%xmm9
    38b2:	01 
    38b3:	4c 8b a4 24 88 06 00 	mov    0x688(%rsp),%r12
    38ba:	00 
    38bb:	41 0f b6 44 24 02    	movzbl 0x2(%r12),%eax
    38c1:	4c 8b a4 24 80 06 00 	mov    0x680(%rsp),%r12
    38c8:	00 
    38c9:	c4 c1 71 61 c9       	vpunpcklwd %xmm9,%xmm1,%xmm1
    38ce:	c5 79 6e d8          	vmovd  %eax,%xmm11
    38d2:	c4 43 21 20 5c 24 02 	vpinsrb $0x1,0x2(%r12),%xmm11,%xmm11
    38d9:	01 
    38da:	4c 8b a4 24 78 06 00 	mov    0x678(%rsp),%r12
    38e1:	00 
    38e2:	41 0f b6 44 24 02    	movzbl 0x2(%r12),%eax
    38e8:	4c 8b a4 24 70 06 00 	mov    0x670(%rsp),%r12
    38ef:	00 
    38f0:	c5 79 6e c0          	vmovd  %eax,%xmm8
    38f4:	c4 43 39 20 44 24 02 	vpinsrb $0x1,0x2(%r12),%xmm8,%xmm8
    38fb:	01 
    38fc:	4c 8b a4 24 68 06 00 	mov    0x668(%rsp),%r12
    3903:	00 
    3904:	41 0f b6 44 24 02    	movzbl 0x2(%r12),%eax
    390a:	4c 8b a4 24 60 06 00 	mov    0x660(%rsp),%r12
    3911:	00 
    3912:	c4 41 21 61 c8       	vpunpcklwd %xmm8,%xmm11,%xmm9
    3917:	c4 c1 71 62 c9       	vpunpckldq %xmm9,%xmm1,%xmm1
    391c:	c5 f9 6e e8          	vmovd  %eax,%xmm5
    3920:	c4 c3 51 20 6c 24 02 	vpinsrb $0x1,0x2(%r12),%xmm5,%xmm5
    3927:	01 
    3928:	4c 8b a4 24 58 06 00 	mov    0x658(%rsp),%r12
    392f:	00 
    3930:	41 0f b6 44 24 02    	movzbl 0x2(%r12),%eax
    3936:	4c 8b a4 24 50 06 00 	mov    0x650(%rsp),%r12
    393d:	00 
    393e:	c5 79 6e e8          	vmovd  %eax,%xmm13
    3942:	c4 43 11 20 6c 24 02 	vpinsrb $0x1,0x2(%r12),%xmm13,%xmm13
    3949:	01 
    394a:	4c 8b a4 24 48 06 00 	mov    0x648(%rsp),%r12
    3951:	00 
    3952:	41 0f b6 44 24 02    	movzbl 0x2(%r12),%eax
    3958:	4c 8b a4 24 40 06 00 	mov    0x640(%rsp),%r12
    395f:	00 
    3960:	c4 c1 51 61 ed       	vpunpcklwd %xmm13,%xmm5,%xmm5
    3965:	c5 79 6e d0          	vmovd  %eax,%xmm10
    3969:	41 0f b6 40 02       	movzbl 0x2(%r8),%eax
    396e:	c4 43 29 20 54 24 02 	vpinsrb $0x1,0x2(%r12),%xmm10,%xmm10
    3975:	01 
    3976:	c5 79 6e e0          	vmovd  %eax,%xmm12
    397a:	c4 03 19 20 64 38 02 	vpinsrb $0x1,0x2(%r8,%r15,1),%xmm12,%xmm12
    3981:	01 
    3982:	48 8b 84 24 38 07 00 	mov    0x738(%rsp),%rax
    3989:	00 
    398a:	c4 41 29 61 c4       	vpunpcklwd %xmm12,%xmm10,%xmm8
    398f:	4a 8d 14 78          	lea    (%rax,%r15,2),%rdx
    3993:	c4 c1 51 62 e8       	vpunpckldq %xmm8,%xmm5,%xmm5
    3998:	c5 f1 6c cd          	vpunpcklqdq %xmm5,%xmm1,%xmm1
    399c:	c4 e3 7d 38 c1 01    	vinserti128 $0x1,%xmm1,%ymm0,%ymm0
    39a2:	c5 fd db c7          	vpand  %ymm7,%ymm0,%ymm0
    39a6:	c5 fd eb c6          	vpor   %ymm6,%ymm0,%ymm0
    39aa:	c4 e3 79 14 00 00    	vpextrb $0x0,%xmm0,(%rax)
    39b0:	c4 a3 79 14 04 38 01 	vpextrb $0x1,%xmm0,(%rax,%r15,1)
    39b7:	c4 a3 79 14 04 78 02 	vpextrb $0x2,%xmm0,(%rax,%r15,2)
    39be:	4a 8d 04 7a          	lea    (%rdx,%r15,2),%rax
    39c2:	c4 a3 79 14 04 3a 03 	vpextrb $0x3,%xmm0,(%rdx,%r15,1)
    39c9:	c4 a3 79 14 04 7a 04 	vpextrb $0x4,%xmm0,(%rdx,%r15,2)
    39d0:	4a 8d 14 78          	lea    (%rax,%r15,2),%rdx
    39d4:	c4 a3 79 14 04 38 05 	vpextrb $0x5,%xmm0,(%rax,%r15,1)
    39db:	c4 a3 79 14 04 78 06 	vpextrb $0x6,%xmm0,(%rax,%r15,2)
    39e2:	4a 8d 04 7a          	lea    (%rdx,%r15,2),%rax
    39e6:	c4 a3 79 14 04 3a 07 	vpextrb $0x7,%xmm0,(%rdx,%r15,1)
    39ed:	c4 a3 79 14 04 7a 08 	vpextrb $0x8,%xmm0,(%rdx,%r15,2)
    39f4:	4a 8d 14 78          	lea    (%rax,%r15,2),%rdx
    39f8:	c4 a3 79 14 04 38 09 	vpextrb $0x9,%xmm0,(%rax,%r15,1)
    39ff:	c4 a3 79 14 04 78 0a 	vpextrb $0xa,%xmm0,(%rax,%r15,2)
    3a06:	4a 8d 04 7a          	lea    (%rdx,%r15,2),%rax
    3a0a:	c4 a3 79 14 04 3a 0b 	vpextrb $0xb,%xmm0,(%rdx,%r15,1)
    3a11:	c4 a3 79 14 04 7a 0c 	vpextrb $0xc,%xmm0,(%rdx,%r15,2)
    3a18:	4a 8d 14 78          	lea    (%rax,%r15,2),%rdx
    3a1c:	c4 a3 79 14 04 38 0d 	vpextrb $0xd,%xmm0,(%rax,%r15,1)
    3a23:	c4 a3 79 14 04 78 0e 	vpextrb $0xe,%xmm0,(%rax,%r15,2)
    3a2a:	c4 a3 79 14 04 3a 0f 	vpextrb $0xf,%xmm0,(%rdx,%r15,1)
    3a31:	4a 8d 04 7a          	lea    (%rdx,%r15,2),%rax
    3a35:	c4 e3 7d 39 c0 01    	vextracti128 $0x1,%ymm0,%xmm0
    3a3b:	c4 a3 79 14 04 7a 00 	vpextrb $0x0,%xmm0,(%rdx,%r15,2)
    3a42:	4a 8d 14 78          	lea    (%rax,%r15,2),%rdx
    3a46:	c4 a3 79 14 04 38 01 	vpextrb $0x1,%xmm0,(%rax,%r15,1)
    3a4d:	c4 a3 79 14 04 78 02 	vpextrb $0x2,%xmm0,(%rax,%r15,2)
    3a54:	4a 8d 04 7a          	lea    (%rdx,%r15,2),%rax
    3a58:	c4 a3 79 14 04 3a 03 	vpextrb $0x3,%xmm0,(%rdx,%r15,1)
    3a5f:	c4 a3 79 14 04 7a 04 	vpextrb $0x4,%xmm0,(%rdx,%r15,2)
    3a66:	4a 8d 14 78          	lea    (%rax,%r15,2),%rdx
    3a6a:	c4 a3 79 14 04 38 05 	vpextrb $0x5,%xmm0,(%rax,%r15,1)
    3a71:	c4 a3 79 14 04 78 06 	vpextrb $0x6,%xmm0,(%rax,%r15,2)
    3a78:	4a 8d 04 7a          	lea    (%rdx,%r15,2),%rax
    3a7c:	c4 a3 79 14 04 3a 07 	vpextrb $0x7,%xmm0,(%rdx,%r15,1)
    3a83:	c4 a3 79 14 04 7a 08 	vpextrb $0x8,%xmm0,(%rdx,%r15,2)
    3a8a:	4a 8d 14 78          	lea    (%rax,%r15,2),%rdx
    3a8e:	c4 a3 79 14 04 38 09 	vpextrb $0x9,%xmm0,(%rax,%r15,1)
    3a95:	c4 a3 79 14 04 78 0a 	vpextrb $0xa,%xmm0,(%rax,%r15,2)
    3a9c:	4a 8d 04 7a          	lea    (%rdx,%r15,2),%rax
    3aa0:	c4 a3 79 14 04 3a 0b 	vpextrb $0xb,%xmm0,(%rdx,%r15,1)
    3aa7:	c4 a3 79 14 04 7a 0c 	vpextrb $0xc,%xmm0,(%rdx,%r15,2)
    3aae:	c4 a3 79 14 04 38 0d 	vpextrb $0xd,%xmm0,(%rax,%r15,1)
    3ab5:	4a 8d 14 78          	lea    (%rax,%r15,2),%rdx
    3ab9:	c4 a3 79 14 04 78 0e 	vpextrb $0xe,%xmm0,(%rax,%r15,2)
    3ac0:	48 8b 84 24 30 07 00 	mov    0x730(%rsp),%rax
    3ac7:	00 
    3ac8:	c4 a3 79 14 04 3a 0f 	vpextrb $0xf,%xmm0,(%rdx,%r15,1)
    3acf:	4e 8d 34 38          	lea    (%rax,%r15,1),%r14
    3ad3:	4f 8d 2c 3e          	lea    (%r14,%r15,1),%r13
    3ad7:	4f 8d 64 3d 00       	lea    0x0(%r13,%r15,1),%r12
    3adc:	4b 8d 1c 3c          	lea    (%r12,%r15,1),%rbx
    3ae0:	4e 8d 1c 3b          	lea    (%rbx,%r15,1),%r11
    3ae4:	4f 8d 14 3b          	lea    (%r11,%r15,1),%r10
    3ae8:	4f 8d 0c 3a          	lea    (%r10,%r15,1),%r9
    3aec:	4b 8d 34 39          	lea    (%r9,%r15,1),%rsi
    3af0:	4a 8d 3c 3e          	lea    (%rsi,%r15,1),%rdi
    3af4:	48 89 b4 24 d0 06 00 	mov    %rsi,0x6d0(%rsp)
    3afb:	00 
    3afc:	4a 8d 34 3f          	lea    (%rdi,%r15,1),%rsi
    3b00:	4e 8d 04 3e          	lea    (%rsi,%r15,1),%r8
    3b04:	4b 8d 14 38          	lea    (%r8,%r15,1),%rdx
    3b08:	4c 89 84 24 c8 06 00 	mov    %r8,0x6c8(%rsp)
    3b0f:	00 
    3b10:	4e 8d 04 3a          	lea    (%rdx,%r15,1),%r8
    3b14:	4c 89 84 24 c0 06 00 	mov    %r8,0x6c0(%rsp)
    3b1b:	00 
    3b1c:	4d 01 f8             	add    %r15,%r8
    3b1f:	4c 89 84 24 b8 06 00 	mov    %r8,0x6b8(%rsp)
    3b26:	00 
    3b27:	4d 01 f8             	add    %r15,%r8
    3b2a:	4c 89 84 24 b0 06 00 	mov    %r8,0x6b0(%rsp)
    3b31:	00 
    3b32:	4d 01 f8             	add    %r15,%r8
    3b35:	4c 89 84 24 a8 06 00 	mov    %r8,0x6a8(%rsp)
    3b3c:	00 
    3b3d:	4d 01 f8             	add    %r15,%r8
    3b40:	4c 89 84 24 a0 06 00 	mov    %r8,0x6a0(%rsp)
    3b47:	00 
    3b48:	4d 01 f8             	add    %r15,%r8
    3b4b:	4c 89 84 24 98 06 00 	mov    %r8,0x698(%rsp)
    3b52:	00 
    3b53:	4d 01 f8             	add    %r15,%r8
    3b56:	4c 89 84 24 90 06 00 	mov    %r8,0x690(%rsp)
    3b5d:	00 
    3b5e:	4d 01 f8             	add    %r15,%r8
    3b61:	4c 89 84 24 88 06 00 	mov    %r8,0x688(%rsp)
    3b68:	00 
    3b69:	4d 01 f8             	add    %r15,%r8
    3b6c:	4c 89 84 24 80 06 00 	mov    %r8,0x680(%rsp)
    3b73:	00 
    3b74:	4d 01 f8             	add    %r15,%r8
    3b77:	4c 89 84 24 78 06 00 	mov    %r8,0x678(%rsp)
    3b7e:	00 
    3b7f:	4d 01 f8             	add    %r15,%r8
    3b82:	4c 89 84 24 70 06 00 	mov    %r8,0x670(%rsp)
    3b89:	00 
    3b8a:	4d 01 f8             	add    %r15,%r8
    3b8d:	4c 89 84 24 68 06 00 	mov    %r8,0x668(%rsp)
    3b94:	00 
    3b95:	4d 01 f8             	add    %r15,%r8
    3b98:	4c 89 84 24 60 06 00 	mov    %r8,0x660(%rsp)
    3b9f:	00 
    3ba0:	4d 01 f8             	add    %r15,%r8
    3ba3:	4c 89 84 24 58 06 00 	mov    %r8,0x658(%rsp)
    3baa:	00 
    3bab:	4d 01 f8             	add    %r15,%r8
    3bae:	4c 89 84 24 50 06 00 	mov    %r8,0x650(%rsp)
    3bb5:	00 
    3bb6:	4d 01 f8             	add    %r15,%r8
    3bb9:	4c 89 84 24 48 06 00 	mov    %r8,0x648(%rsp)
    3bc0:	00 
    3bc1:	4d 01 f8             	add    %r15,%r8
    3bc4:	4c 89 84 24 40 06 00 	mov    %r8,0x640(%rsp)
    3bcb:	00 
    3bcc:	4d 01 f8             	add    %r15,%r8
    3bcf:	4c 89 84 24 38 06 00 	mov    %r8,0x638(%rsp)
    3bd6:	00 
    3bd7:	4c 8b 84 24 28 07 00 	mov    0x728(%rsp),%r8
    3bde:	00 
    3bdf:	4d 01 f8             	add    %r15,%r8
    3be2:	4c 89 84 24 30 06 00 	mov    %r8,0x630(%rsp)
    3be9:	00 
    3bea:	4d 01 f8             	add    %r15,%r8
    3bed:	4c 89 84 24 28 06 00 	mov    %r8,0x628(%rsp)
    3bf4:	00 
    3bf5:	4d 01 f8             	add    %r15,%r8
    3bf8:	4c 89 84 24 20 06 00 	mov    %r8,0x620(%rsp)
    3bff:	00 
    3c00:	4d 01 f8             	add    %r15,%r8
    3c03:	4c 89 84 24 18 06 00 	mov    %r8,0x618(%rsp)
    3c0a:	00 
    3c0b:	4d 01 f8             	add    %r15,%r8
    3c0e:	4c 89 84 24 10 06 00 	mov    %r8,0x610(%rsp)
    3c15:	00 
    3c16:	4d 01 f8             	add    %r15,%r8
    3c19:	4c 89 84 24 08 06 00 	mov    %r8,0x608(%rsp)
    3c20:	00 
    3c21:	4d 01 f8             	add    %r15,%r8
    3c24:	4c 89 84 24 00 06 00 	mov    %r8,0x600(%rsp)
    3c2b:	00 
    3c2c:	4d 01 f8             	add    %r15,%r8
    3c2f:	4c 89 84 24 f8 05 00 	mov    %r8,0x5f8(%rsp)
    3c36:	00 
    3c37:	4d 01 f8             	add    %r15,%r8
    3c3a:	4c 89 84 24 f0 05 00 	mov    %r8,0x5f0(%rsp)
    3c41:	00 
    3c42:	4d 01 f8             	add    %r15,%r8
    3c45:	4c 89 84 24 e8 05 00 	mov    %r8,0x5e8(%rsp)
    3c4c:	00 
    3c4d:	4d 01 f8             	add    %r15,%r8
    3c50:	4c 89 84 24 e0 05 00 	mov    %r8,0x5e0(%rsp)
    3c57:	00 
    3c58:	4d 01 f8             	add    %r15,%r8
    3c5b:	4c 89 84 24 d8 05 00 	mov    %r8,0x5d8(%rsp)
    3c62:	00 
    3c63:	4d 01 f8             	add    %r15,%r8
    3c66:	4c 89 84 24 d0 05 00 	mov    %r8,0x5d0(%rsp)
    3c6d:	00 
    3c6e:	4d 01 f8             	add    %r15,%r8
    3c71:	4c 89 84 24 c8 05 00 	mov    %r8,0x5c8(%rsp)
    3c78:	00 
    3c79:	4d 01 f8             	add    %r15,%r8
    3c7c:	4c 89 84 24 c0 05 00 	mov    %r8,0x5c0(%rsp)
    3c83:	00 
    3c84:	4d 01 f8             	add    %r15,%r8
    3c87:	4c 89 84 24 b8 05 00 	mov    %r8,0x5b8(%rsp)
    3c8e:	00 
    3c8f:	4d 01 f8             	add    %r15,%r8
    3c92:	4c 89 84 24 b0 05 00 	mov    %r8,0x5b0(%rsp)
    3c99:	00 
    3c9a:	4d 01 f8             	add    %r15,%r8
    3c9d:	4c 89 84 24 a8 05 00 	mov    %r8,0x5a8(%rsp)
    3ca4:	00 
    3ca5:	4d 01 f8             	add    %r15,%r8
    3ca8:	4c 89 84 24 a0 05 00 	mov    %r8,0x5a0(%rsp)
    3caf:	00 
    3cb0:	4d 01 f8             	add    %r15,%r8
    3cb3:	4c 89 84 24 98 05 00 	mov    %r8,0x598(%rsp)
    3cba:	00 
    3cbb:	4d 01 f8             	add    %r15,%r8
    3cbe:	4c 89 84 24 90 05 00 	mov    %r8,0x590(%rsp)
    3cc5:	00 
    3cc6:	4d 01 f8             	add    %r15,%r8
    3cc9:	4c 89 84 24 88 05 00 	mov    %r8,0x588(%rsp)
    3cd0:	00 
    3cd1:	4d 01 f8             	add    %r15,%r8
    3cd4:	4c 89 84 24 80 05 00 	mov    %r8,0x580(%rsp)
    3cdb:	00 
    3cdc:	4d 01 f8             	add    %r15,%r8
    3cdf:	4c 89 84 24 78 05 00 	mov    %r8,0x578(%rsp)
    3ce6:	00 
    3ce7:	4d 01 f8             	add    %r15,%r8
    3cea:	4c 89 84 24 70 05 00 	mov    %r8,0x570(%rsp)
    3cf1:	00 
    3cf2:	4d 01 f8             	add    %r15,%r8
    3cf5:	4c 89 84 24 68 05 00 	mov    %r8,0x568(%rsp)
    3cfc:	00 
    3cfd:	4d 01 f8             	add    %r15,%r8
    3d00:	4c 89 84 24 60 05 00 	mov    %r8,0x560(%rsp)
    3d07:	00 
    3d08:	4d 01 f8             	add    %r15,%r8
    3d0b:	4c 89 84 24 58 05 00 	mov    %r8,0x558(%rsp)
    3d12:	00 
    3d13:	4d 01 f8             	add    %r15,%r8
    3d16:	4c 89 84 24 50 05 00 	mov    %r8,0x550(%rsp)
    3d1d:	00 
    3d1e:	4d 01 f8             	add    %r15,%r8
    3d21:	4c 89 84 24 48 05 00 	mov    %r8,0x548(%rsp)
    3d28:	00 
    3d29:	4c 8b 84 24 20 07 00 	mov    0x720(%rsp),%r8
    3d30:	00 
    3d31:	4d 01 f8             	add    %r15,%r8
    3d34:	4c 89 84 24 40 05 00 	mov    %r8,0x540(%rsp)
    3d3b:	00 
    3d3c:	4d 01 f8             	add    %r15,%r8
    3d3f:	4c 89 84 24 38 05 00 	mov    %r8,0x538(%rsp)
    3d46:	00 
    3d47:	4d 01 f8             	add    %r15,%r8
    3d4a:	4c 89 84 24 30 05 00 	mov    %r8,0x530(%rsp)
    3d51:	00 
    3d52:	4d 01 f8             	add    %r15,%r8
    3d55:	4c 89 84 24 28 05 00 	mov    %r8,0x528(%rsp)
    3d5c:	00 
    3d5d:	4d 01 f8             	add    %r15,%r8
    3d60:	4c 89 84 24 20 05 00 	mov    %r8,0x520(%rsp)
    3d67:	00 
    3d68:	4d 01 f8             	add    %r15,%r8
    3d6b:	4c 89 84 24 18 05 00 	mov    %r8,0x518(%rsp)
    3d72:	00 
    3d73:	4d 01 f8             	add    %r15,%r8
    3d76:	4c 89 84 24 10 05 00 	mov    %r8,0x510(%rsp)
    3d7d:	00 
    3d7e:	4d 01 f8             	add    %r15,%r8
    3d81:	4c 89 84 24 08 05 00 	mov    %r8,0x508(%rsp)
    3d88:	00 
    3d89:	4d 01 f8             	add    %r15,%r8
    3d8c:	4c 89 84 24 00 05 00 	mov    %r8,0x500(%rsp)
    3d93:	00 
    3d94:	4d 01 f8             	add    %r15,%r8
    3d97:	4c 89 84 24 f8 04 00 	mov    %r8,0x4f8(%rsp)
    3d9e:	00 
    3d9f:	4d 01 f8             	add    %r15,%r8
    3da2:	4c 89 84 24 f0 04 00 	mov    %r8,0x4f0(%rsp)
    3da9:	00 
    3daa:	4d 01 f8             	add    %r15,%r8
    3dad:	4c 89 84 24 e8 04 00 	mov    %r8,0x4e8(%rsp)
    3db4:	00 
    3db5:	4d 01 f8             	add    %r15,%r8
    3db8:	4c 89 84 24 e0 04 00 	mov    %r8,0x4e0(%rsp)
    3dbf:	00 
    3dc0:	4d 01 f8             	add    %r15,%r8
    3dc3:	4c 89 84 24 d8 04 00 	mov    %r8,0x4d8(%rsp)
    3dca:	00 
    3dcb:	4d 01 f8             	add    %r15,%r8
    3dce:	4c 89 84 24 d0 04 00 	mov    %r8,0x4d0(%rsp)
    3dd5:	00 
    3dd6:	4d 01 f8             	add    %r15,%r8
    3dd9:	4c 89 84 24 c8 04 00 	mov    %r8,0x4c8(%rsp)
    3de0:	00 
    3de1:	4d 01 f8             	add    %r15,%r8
    3de4:	4c 89 84 24 c0 04 00 	mov    %r8,0x4c0(%rsp)
    3deb:	00 
    3dec:	4d 01 f8             	add    %r15,%r8
    3def:	4c 89 84 24 b8 04 00 	mov    %r8,0x4b8(%rsp)
    3df6:	00 
    3df7:	4d 01 f8             	add    %r15,%r8
    3dfa:	4c 89 84 24 b0 04 00 	mov    %r8,0x4b0(%rsp)
    3e01:	00 
    3e02:	4d 01 f8             	add    %r15,%r8
    3e05:	4c 89 84 24 a8 04 00 	mov    %r8,0x4a8(%rsp)
    3e0c:	00 
    3e0d:	4d 01 f8             	add    %r15,%r8
    3e10:	4c 89 84 24 a0 04 00 	mov    %r8,0x4a0(%rsp)
    3e17:	00 
    3e18:	4d 01 f8             	add    %r15,%r8
    3e1b:	4c 89 84 24 98 04 00 	mov    %r8,0x498(%rsp)
    3e22:	00 
    3e23:	4d 01 f8             	add    %r15,%r8
    3e26:	4c 89 84 24 90 04 00 	mov    %r8,0x490(%rsp)
    3e2d:	00 
    3e2e:	4d 01 f8             	add    %r15,%r8
    3e31:	4c 89 84 24 88 04 00 	mov    %r8,0x488(%rsp)
    3e38:	00 
    3e39:	4d 01 f8             	add    %r15,%r8
    3e3c:	4c 89 84 24 80 04 00 	mov    %r8,0x480(%rsp)
    3e43:	00 
    3e44:	4d 01 f8             	add    %r15,%r8
    3e47:	4c 89 84 24 78 04 00 	mov    %r8,0x478(%rsp)
    3e4e:	00 
    3e4f:	4d 01 f8             	add    %r15,%r8
    3e52:	4c 89 84 24 70 04 00 	mov    %r8,0x470(%rsp)
    3e59:	00 
    3e5a:	4d 01 f8             	add    %r15,%r8
    3e5d:	4c 89 84 24 68 04 00 	mov    %r8,0x468(%rsp)
    3e64:	00 
    3e65:	4d 01 f8             	add    %r15,%r8
    3e68:	4c 89 84 24 60 04 00 	mov    %r8,0x460(%rsp)
    3e6f:	00 
    3e70:	4d 01 f8             	add    %r15,%r8
    3e73:	4c 89 84 24 58 04 00 	mov    %r8,0x458(%rsp)
    3e7a:	00 
    3e7b:	4c 8b 84 24 18 07 00 	mov    0x718(%rsp),%r8
    3e82:	00 
    3e83:	4d 01 f8             	add    %r15,%r8
    3e86:	4c 89 84 24 50 04 00 	mov    %r8,0x450(%rsp)
    3e8d:	00 
    3e8e:	4d 01 f8             	add    %r15,%r8
    3e91:	4c 89 84 24 48 04 00 	mov    %r8,0x448(%rsp)
    3e98:	00 
    3e99:	4d 01 f8             	add    %r15,%r8
    3e9c:	4c 89 84 24 40 04 00 	mov    %r8,0x440(%rsp)
    3ea3:	00 
    3ea4:	4d 01 f8             	add    %r15,%r8
    3ea7:	4c 89 84 24 38 04 00 	mov    %r8,0x438(%rsp)
    3eae:	00 
    3eaf:	4d 01 f8             	add    %r15,%r8
    3eb2:	4c 89 84 24 30 04 00 	mov    %r8,0x430(%rsp)
    3eb9:	00 
    3eba:	4d 01 f8             	add    %r15,%r8
    3ebd:	4c 89 84 24 28 04 00 	mov    %r8,0x428(%rsp)
    3ec4:	00 
    3ec5:	4d 01 f8             	add    %r15,%r8
    3ec8:	4c 89 84 24 20 04 00 	mov    %r8,0x420(%rsp)
    3ecf:	00 
    3ed0:	4d 01 f8             	add    %r15,%r8
    3ed3:	4c 89 84 24 18 04 00 	mov    %r8,0x418(%rsp)
    3eda:	00 
    3edb:	4d 01 f8             	add    %r15,%r8
    3ede:	4c 89 84 24 10 04 00 	mov    %r8,0x410(%rsp)
    3ee5:	00 
    3ee6:	4d 01 f8             	add    %r15,%r8
    3ee9:	4c 89 84 24 08 04 00 	mov    %r8,0x408(%rsp)
    3ef0:	00 
    3ef1:	4d 01 f8             	add    %r15,%r8
    3ef4:	4c 89 84 24 00 04 00 	mov    %r8,0x400(%rsp)
    3efb:	00 
    3efc:	4d 01 f8             	add    %r15,%r8
    3eff:	4c 89 84 24 f8 03 00 	mov    %r8,0x3f8(%rsp)
    3f06:	00 
    3f07:	4d 01 f8             	add    %r15,%r8
    3f0a:	4c 89 84 24 f0 03 00 	mov    %r8,0x3f0(%rsp)
    3f11:	00 
    3f12:	4d 01 f8             	add    %r15,%r8
    3f15:	4c 89 84 24 e8 03 00 	mov    %r8,0x3e8(%rsp)
    3f1c:	00 
    3f1d:	4d 01 f8             	add    %r15,%r8
    3f20:	4c 89 84 24 e0 03 00 	mov    %r8,0x3e0(%rsp)
    3f27:	00 
    3f28:	4d 01 f8             	add    %r15,%r8
    3f2b:	4c 89 84 24 d8 03 00 	mov    %r8,0x3d8(%rsp)
    3f32:	00 
    3f33:	4d 01 f8             	add    %r15,%r8
    3f36:	4c 89 84 24 d0 03 00 	mov    %r8,0x3d0(%rsp)
    3f3d:	00 
    3f3e:	4d 01 f8             	add    %r15,%r8
    3f41:	4c 89 84 24 c8 03 00 	mov    %r8,0x3c8(%rsp)
    3f48:	00 
    3f49:	4d 01 f8             	add    %r15,%r8
    3f4c:	4c 89 84 24 c0 03 00 	mov    %r8,0x3c0(%rsp)
    3f53:	00 
    3f54:	4d 01 f8             	add    %r15,%r8
    3f57:	4c 89 84 24 b8 03 00 	mov    %r8,0x3b8(%rsp)
    3f5e:	00 
    3f5f:	4d 01 f8             	add    %r15,%r8
    3f62:	4c 89 84 24 b0 03 00 	mov    %r8,0x3b0(%rsp)
    3f69:	00 
    3f6a:	4d 01 f8             	add    %r15,%r8
    3f6d:	4c 89 84 24 a8 03 00 	mov    %r8,0x3a8(%rsp)
    3f74:	00 
    3f75:	4d 01 f8             	add    %r15,%r8
    3f78:	4c 89 84 24 a0 03 00 	mov    %r8,0x3a0(%rsp)
    3f7f:	00 
    3f80:	4d 01 f8             	add    %r15,%r8
    3f83:	4c 89 84 24 98 03 00 	mov    %r8,0x398(%rsp)
    3f8a:	00 
    3f8b:	4d 01 f8             	add    %r15,%r8
    3f8e:	4c 89 84 24 90 03 00 	mov    %r8,0x390(%rsp)
    3f95:	00 
    3f96:	4d 01 f8             	add    %r15,%r8
    3f99:	4c 89 84 24 88 03 00 	mov    %r8,0x388(%rsp)
    3fa0:	00 
    3fa1:	4d 01 f8             	add    %r15,%r8
    3fa4:	4c 89 84 24 80 03 00 	mov    %r8,0x380(%rsp)
    3fab:	00 
    3fac:	4d 01 f8             	add    %r15,%r8
    3faf:	4c 89 84 24 78 03 00 	mov    %r8,0x378(%rsp)
    3fb6:	00 
    3fb7:	4d 01 f8             	add    %r15,%r8
    3fba:	4c 89 84 24 70 03 00 	mov    %r8,0x370(%rsp)
    3fc1:	00 
    3fc2:	4d 01 f8             	add    %r15,%r8
    3fc5:	4c 89 84 24 68 03 00 	mov    %r8,0x368(%rsp)
    3fcc:	00 
    3fcd:	4c 8b 84 24 10 07 00 	mov    0x710(%rsp),%r8
    3fd4:	00 
    3fd5:	4d 01 f8             	add    %r15,%r8
    3fd8:	4c 89 84 24 60 03 00 	mov    %r8,0x360(%rsp)
    3fdf:	00 
    3fe0:	4d 01 f8             	add    %r15,%r8
    3fe3:	4c 89 84 24 58 03 00 	mov    %r8,0x358(%rsp)
    3fea:	00 
    3feb:	4d 01 f8             	add    %r15,%r8
    3fee:	4c 89 84 24 50 03 00 	mov    %r8,0x350(%rsp)
    3ff5:	00 
    3ff6:	4d 01 f8             	add    %r15,%r8
    3ff9:	4c 89 84 24 48 03 00 	mov    %r8,0x348(%rsp)
    4000:	00 
    4001:	4d 01 f8             	add    %r15,%r8
    4004:	4c 89 84 24 40 03 00 	mov    %r8,0x340(%rsp)
    400b:	00 
    400c:	4d 01 f8             	add    %r15,%r8
    400f:	4c 89 84 24 38 03 00 	mov    %r8,0x338(%rsp)
    4016:	00 
    4017:	4d 01 f8             	add    %r15,%r8
    401a:	4c 89 84 24 30 03 00 	mov    %r8,0x330(%rsp)
    4021:	00 
    4022:	4d 01 f8             	add    %r15,%r8
    4025:	4c 89 84 24 28 03 00 	mov    %r8,0x328(%rsp)
    402c:	00 
    402d:	4d 01 f8             	add    %r15,%r8
    4030:	4c 89 84 24 20 03 00 	mov    %r8,0x320(%rsp)
    4037:	00 
    4038:	4d 01 f8             	add    %r15,%r8
    403b:	4c 89 84 24 18 03 00 	mov    %r8,0x318(%rsp)
    4042:	00 
    4043:	4d 01 f8             	add    %r15,%r8
    4046:	4c 89 84 24 10 03 00 	mov    %r8,0x310(%rsp)
    404d:	00 
    404e:	4d 01 f8             	add    %r15,%r8
    4051:	4c 89 84 24 08 03 00 	mov    %r8,0x308(%rsp)
    4058:	00 
    4059:	4d 01 f8             	add    %r15,%r8
    405c:	4c 89 84 24 00 03 00 	mov    %r8,0x300(%rsp)
    4063:	00 
    4064:	4d 01 f8             	add    %r15,%r8
    4067:	4c 89 84 24 f8 02 00 	mov    %r8,0x2f8(%rsp)
    406e:	00 
    406f:	4d 01 f8             	add    %r15,%r8
    4072:	4c 89 84 24 f0 02 00 	mov    %r8,0x2f0(%rsp)
    4079:	00 
    407a:	4d 01 f8             	add    %r15,%r8
    407d:	4c 89 84 24 e8 02 00 	mov    %r8,0x2e8(%rsp)
    4084:	00 
    4085:	4d 01 f8             	add    %r15,%r8
    4088:	4c 89 84 24 e0 02 00 	mov    %r8,0x2e0(%rsp)
    408f:	00 
    4090:	4d 01 f8             	add    %r15,%r8
    4093:	4c 89 84 24 d8 02 00 	mov    %r8,0x2d8(%rsp)
    409a:	00 
    409b:	4d 01 f8             	add    %r15,%r8
    409e:	4c 89 84 24 d0 02 00 	mov    %r8,0x2d0(%rsp)
    40a5:	00 
    40a6:	4d 01 f8             	add    %r15,%r8
    40a9:	4c 89 84 24 c8 02 00 	mov    %r8,0x2c8(%rsp)
    40b0:	00 
    40b1:	4d 01 f8             	add    %r15,%r8
    40b4:	4c 89 84 24 c0 02 00 	mov    %r8,0x2c0(%rsp)
    40bb:	00 
    40bc:	4d 01 f8             	add    %r15,%r8
    40bf:	4c 89 84 24 b8 02 00 	mov    %r8,0x2b8(%rsp)
    40c6:	00 
    40c7:	4d 01 f8             	add    %r15,%r8
    40ca:	4c 89 84 24 b0 02 00 	mov    %r8,0x2b0(%rsp)
    40d1:	00 
    40d2:	4d 01 f8             	add    %r15,%r8
    40d5:	4c 89 84 24 a8 02 00 	mov    %r8,0x2a8(%rsp)
    40dc:	00 
    40dd:	4d 01 f8             	add    %r15,%r8
    40e0:	4c 89 84 24 a0 02 00 	mov    %r8,0x2a0(%rsp)
    40e7:	00 
    40e8:	4d 01 f8             	add    %r15,%r8
    40eb:	4c 89 84 24 98 02 00 	mov    %r8,0x298(%rsp)
    40f2:	00 
    40f3:	4d 01 f8             	add    %r15,%r8
    40f6:	4c 89 84 24 90 02 00 	mov    %r8,0x290(%rsp)
    40fd:	00 
    40fe:	4d 01 f8             	add    %r15,%r8
    4101:	4c 89 84 24 88 02 00 	mov    %r8,0x288(%rsp)
    4108:	00 
    4109:	4d 01 f8             	add    %r15,%r8
    410c:	4c 89 84 24 80 02 00 	mov    %r8,0x280(%rsp)
    4113:	00 
    4114:	4d 01 f8             	add    %r15,%r8
    4117:	4c 89 84 24 78 02 00 	mov    %r8,0x278(%rsp)
    411e:	00 
    411f:	4c 8b 84 24 08 07 00 	mov    0x708(%rsp),%r8
    4126:	00 
    4127:	4d 01 f8             	add    %r15,%r8
    412a:	4c 89 84 24 70 02 00 	mov    %r8,0x270(%rsp)
    4131:	00 
    4132:	4d 01 f8             	add    %r15,%r8
    4135:	4c 89 84 24 68 02 00 	mov    %r8,0x268(%rsp)
    413c:	00 
    413d:	4d 01 f8             	add    %r15,%r8
    4140:	4c 89 84 24 60 02 00 	mov    %r8,0x260(%rsp)
    4147:	00 
    4148:	4d 01 f8             	add    %r15,%r8
    414b:	4c 89 84 24 58 02 00 	mov    %r8,0x258(%rsp)
    4152:	00 
    4153:	4d 01 f8             	add    %r15,%r8
    4156:	4c 89 84 24 50 02 00 	mov    %r8,0x250(%rsp)
    415d:	00 
    415e:	4d 01 f8             	add    %r15,%r8
    4161:	4c 89 84 24 48 02 00 	mov    %r8,0x248(%rsp)
    4168:	00 
    4169:	4d 01 f8             	add    %r15,%r8
    416c:	4c 89 84 24 40 02 00 	mov    %r8,0x240(%rsp)
    4173:	00 
    4174:	4d 01 f8             	add    %r15,%r8
    4177:	4c 89 84 24 38 02 00 	mov    %r8,0x238(%rsp)
    417e:	00 
    417f:	4d 01 f8             	add    %r15,%r8
    4182:	4c 89 84 24 30 02 00 	mov    %r8,0x230(%rsp)
    4189:	00 
    418a:	4d 01 f8             	add    %r15,%r8
    418d:	4c 89 84 24 28 02 00 	mov    %r8,0x228(%rsp)
    4194:	00 
    4195:	4d 01 f8             	add    %r15,%r8
    4198:	4c 89 84 24 20 02 00 	mov    %r8,0x220(%rsp)
    419f:	00 
    41a0:	4d 01 f8             	add    %r15,%r8
    41a3:	4c 89 84 24 18 02 00 	mov    %r8,0x218(%rsp)
    41aa:	00 
    41ab:	4d 01 f8             	add    %r15,%r8
    41ae:	4c 89 84 24 10 02 00 	mov    %r8,0x210(%rsp)
    41b5:	00 
    41b6:	4d 01 f8             	add    %r15,%r8
    41b9:	4c 89 84 24 08 02 00 	mov    %r8,0x208(%rsp)
    41c0:	00 
    41c1:	4d 01 f8             	add    %r15,%r8
    41c4:	4c 89 84 24 00 02 00 	mov    %r8,0x200(%rsp)
    41cb:	00 
    41cc:	4d 01 f8             	add    %r15,%r8
    41cf:	4c 89 84 24 f8 01 00 	mov    %r8,0x1f8(%rsp)
    41d6:	00 
    41d7:	4d 01 f8             	add    %r15,%r8
    41da:	4c 89 84 24 f0 01 00 	mov    %r8,0x1f0(%rsp)
    41e1:	00 
    41e2:	4d 01 f8             	add    %r15,%r8
    41e5:	4c 89 84 24 e8 01 00 	mov    %r8,0x1e8(%rsp)
    41ec:	00 
    41ed:	4d 01 f8             	add    %r15,%r8
    41f0:	4c 89 84 24 e0 01 00 	mov    %r8,0x1e0(%rsp)
    41f7:	00 
    41f8:	4d 01 f8             	add    %r15,%r8
    41fb:	4c 89 84 24 d8 01 00 	mov    %r8,0x1d8(%rsp)
    4202:	00 
    4203:	4d 01 f8             	add    %r15,%r8
    4206:	4c 89 84 24 d0 01 00 	mov    %r8,0x1d0(%rsp)
    420d:	00 
    420e:	4d 01 f8             	add    %r15,%r8
    4211:	4c 89 84 24 c8 01 00 	mov    %r8,0x1c8(%rsp)
    4218:	00 
    4219:	4d 01 f8             	add    %r15,%r8
    421c:	4c 89 84 24 c0 01 00 	mov    %r8,0x1c0(%rsp)
    4223:	00 
    4224:	4d 01 f8             	add    %r15,%r8
    4227:	4c 89 84 24 b8 01 00 	mov    %r8,0x1b8(%rsp)
    422e:	00 
    422f:	4d 01 f8             	add    %r15,%r8
    4232:	4c 89 84 24 b0 01 00 	mov    %r8,0x1b0(%rsp)
    4239:	00 
    423a:	4d 01 f8             	add    %r15,%r8
    423d:	4c 89 84 24 a8 01 00 	mov    %r8,0x1a8(%rsp)
    4244:	00 
    4245:	4d 01 f8             	add    %r15,%r8
    4248:	4c 89 84 24 a0 01 00 	mov    %r8,0x1a0(%rsp)
    424f:	00 
    4250:	4d 01 f8             	add    %r15,%r8
    4253:	4c 89 84 24 98 01 00 	mov    %r8,0x198(%rsp)
    425a:	00 
    425b:	4d 01 f8             	add    %r15,%r8
    425e:	4c 89 84 24 90 01 00 	mov    %r8,0x190(%rsp)
    4265:	00 
    4266:	4d 01 f8             	add    %r15,%r8
    4269:	4c 89 84 24 88 01 00 	mov    %r8,0x188(%rsp)
    4270:	00 
    4271:	4c 8b 84 24 00 07 00 	mov    0x700(%rsp),%r8
    4278:	00 
    4279:	4d 01 f8             	add    %r15,%r8
    427c:	4c 89 84 24 80 01 00 	mov    %r8,0x180(%rsp)
    4283:	00 
    4284:	4d 01 f8             	add    %r15,%r8
    4287:	4c 89 84 24 78 01 00 	mov    %r8,0x178(%rsp)
    428e:	00 
    428f:	4d 01 f8             	add    %r15,%r8
    4292:	4c 89 84 24 70 01 00 	mov    %r8,0x170(%rsp)
    4299:	00 
    429a:	4d 01 f8             	add    %r15,%r8
    429d:	4c 89 84 24 68 01 00 	mov    %r8,0x168(%rsp)
    42a4:	00 
    42a5:	4d 01 f8             	add    %r15,%r8
    42a8:	4c 89 84 24 60 01 00 	mov    %r8,0x160(%rsp)
    42af:	00 
    42b0:	4d 01 f8             	add    %r15,%r8
    42b3:	4c 89 84 24 58 01 00 	mov    %r8,0x158(%rsp)
    42ba:	00 
    42bb:	4d 01 f8             	add    %r15,%r8
    42be:	4c 89 84 24 50 01 00 	mov    %r8,0x150(%rsp)
    42c5:	00 
    42c6:	4d 01 f8             	add    %r15,%r8
    42c9:	4c 89 84 24 48 01 00 	mov    %r8,0x148(%rsp)
    42d0:	00 
    42d1:	4d 01 f8             	add    %r15,%r8
    42d4:	4c 89 84 24 40 01 00 	mov    %r8,0x140(%rsp)
    42db:	00 
    42dc:	4d 01 f8             	add    %r15,%r8
    42df:	4c 89 84 24 38 01 00 	mov    %r8,0x138(%rsp)
    42e6:	00 
    42e7:	4d 01 f8             	add    %r15,%r8
    42ea:	4c 89 84 24 30 01 00 	mov    %r8,0x130(%rsp)
    42f1:	00 
    42f2:	4d 01 f8             	add    %r15,%r8
    42f5:	4c 89 84 24 28 01 00 	mov    %r8,0x128(%rsp)
    42fc:	00 
    42fd:	4d 01 f8             	add    %r15,%r8
    4300:	4c 89 84 24 20 01 00 	mov    %r8,0x120(%rsp)
    4307:	00 
    4308:	4d 01 f8             	add    %r15,%r8
    430b:	4c 89 84 24 18 01 00 	mov    %r8,0x118(%rsp)
    4312:	00 
    4313:	4d 01 f8             	add    %r15,%r8
    4316:	4c 89 84 24 10 01 00 	mov    %r8,0x110(%rsp)
    431d:	00 
    431e:	4d 01 f8             	add    %r15,%r8
    4321:	4c 89 84 24 08 01 00 	mov    %r8,0x108(%rsp)
    4328:	00 
    4329:	4d 01 f8             	add    %r15,%r8
    432c:	4c 89 84 24 00 01 00 	mov    %r8,0x100(%rsp)
    4333:	00 
    4334:	4d 01 f8             	add    %r15,%r8
    4337:	4c 89 84 24 f8 00 00 	mov    %r8,0xf8(%rsp)
    433e:	00 
    433f:	4d 01 f8             	add    %r15,%r8
    4342:	4c 89 84 24 f0 00 00 	mov    %r8,0xf0(%rsp)
    4349:	00 
    434a:	4d 01 f8             	add    %r15,%r8
    434d:	4c 89 84 24 e8 00 00 	mov    %r8,0xe8(%rsp)
    4354:	00 
    4355:	4d 01 f8             	add    %r15,%r8
    4358:	4c 89 84 24 e0 00 00 	mov    %r8,0xe0(%rsp)
    435f:	00 
    4360:	4d 01 f8             	add    %r15,%r8
    4363:	4c 89 84 24 d8 00 00 	mov    %r8,0xd8(%rsp)
    436a:	00 
    436b:	4d 01 f8             	add    %r15,%r8
    436e:	4c 89 84 24 d0 00 00 	mov    %r8,0xd0(%rsp)
    4375:	00 
    4376:	4d 01 f8             	add    %r15,%r8
    4379:	4c 89 84 24 c8 00 00 	mov    %r8,0xc8(%rsp)
    4380:	00 
    4381:	4d 01 f8             	add    %r15,%r8
    4384:	4c 89 84 24 c0 00 00 	mov    %r8,0xc0(%rsp)
    438b:	00 
    438c:	4d 01 f8             	add    %r15,%r8
    438f:	4c 89 84 24 b8 00 00 	mov    %r8,0xb8(%rsp)
    4396:	00 
    4397:	4d 01 f8             	add    %r15,%r8
    439a:	4c 89 84 24 b0 00 00 	mov    %r8,0xb0(%rsp)
    43a1:	00 
    43a2:	4d 01 f8             	add    %r15,%r8
    43a5:	4c 89 84 24 a8 00 00 	mov    %r8,0xa8(%rsp)
    43ac:	00 
    43ad:	4d 01 f8             	add    %r15,%r8
    43b0:	4c 89 84 24 a0 00 00 	mov    %r8,0xa0(%rsp)
    43b7:	00 
    43b8:	4d 01 f8             	add    %r15,%r8
    43bb:	4c 89 84 24 98 00 00 	mov    %r8,0x98(%rsp)
    43c2:	00 
    43c3:	4c 8b 84 24 f8 06 00 	mov    0x6f8(%rsp),%r8
    43ca:	00 
    43cb:	4d 01 f8             	add    %r15,%r8
    43ce:	4c 89 84 24 90 00 00 	mov    %r8,0x90(%rsp)
    43d5:	00 
    43d6:	4d 01 f8             	add    %r15,%r8
    43d9:	4c 89 84 24 88 00 00 	mov    %r8,0x88(%rsp)
    43e0:	00 
    43e1:	4d 01 f8             	add    %r15,%r8
    43e4:	4c 89 84 24 80 00 00 	mov    %r8,0x80(%rsp)
    43eb:	00 
    43ec:	4d 01 f8             	add    %r15,%r8
    43ef:	4c 89 44 24 78       	mov    %r8,0x78(%rsp)
    43f4:	4d 01 f8             	add    %r15,%r8
    43f7:	4c 89 44 24 70       	mov    %r8,0x70(%rsp)
    43fc:	4d 01 f8             	add    %r15,%r8
    43ff:	4c 89 44 24 68       	mov    %r8,0x68(%rsp)
    4404:	4d 01 f8             	add    %r15,%r8
    4407:	4c 89 44 24 60       	mov    %r8,0x60(%rsp)
    440c:	4d 01 f8             	add    %r15,%r8
    440f:	4c 89 44 24 58       	mov    %r8,0x58(%rsp)
    4414:	4d 01 f8             	add    %r15,%r8
    4417:	4c 89 44 24 50       	mov    %r8,0x50(%rsp)
    441c:	4d 01 f8             	add    %r15,%r8
    441f:	4c 89 44 24 48       	mov    %r8,0x48(%rsp)
    4424:	4d 01 f8             	add    %r15,%r8
    4427:	4c 89 44 24 40       	mov    %r8,0x40(%rsp)
    442c:	4d 01 f8             	add    %r15,%r8
    442f:	4c 89 44 24 38       	mov    %r8,0x38(%rsp)
    4434:	4d 01 f8             	add    %r15,%r8
    4437:	4c 89 44 24 30       	mov    %r8,0x30(%rsp)
    443c:	4d 01 f8             	add    %r15,%r8
    443f:	4c 89 44 24 28       	mov    %r8,0x28(%rsp)
    4444:	4d 01 f8             	add    %r15,%r8
    4447:	4c 89 44 24 20       	mov    %r8,0x20(%rsp)
    444c:	4d 01 f8             	add    %r15,%r8
    444f:	4c 89 44 24 18       	mov    %r8,0x18(%rsp)
    4454:	4d 01 f8             	add    %r15,%r8
    4457:	4c 89 44 24 10       	mov    %r8,0x10(%rsp)
    445c:	4d 01 f8             	add    %r15,%r8
    445f:	4c 89 44 24 08       	mov    %r8,0x8(%rsp)
    4464:	4d 01 f8             	add    %r15,%r8
    4467:	4c 89 04 24          	mov    %r8,(%rsp)
    446b:	4d 01 f8             	add    %r15,%r8
    446e:	4c 89 44 24 f8       	mov    %r8,-0x8(%rsp)
    4473:	4d 01 f8             	add    %r15,%r8
    4476:	4c 89 44 24 f0       	mov    %r8,-0x10(%rsp)
    447b:	4d 01 f8             	add    %r15,%r8
    447e:	4c 89 44 24 e8       	mov    %r8,-0x18(%rsp)
    4483:	4d 01 f8             	add    %r15,%r8
    4486:	4c 89 44 24 e0       	mov    %r8,-0x20(%rsp)
    448b:	4d 01 f8             	add    %r15,%r8
    448e:	4c 89 44 24 d8       	mov    %r8,-0x28(%rsp)
    4493:	4d 01 f8             	add    %r15,%r8
    4496:	4c 89 44 24 d0       	mov    %r8,-0x30(%rsp)
    449b:	4d 01 f8             	add    %r15,%r8
    449e:	4c 89 44 24 c8       	mov    %r8,-0x38(%rsp)
    44a3:	4d 01 f8             	add    %r15,%r8
    44a6:	4c 89 44 24 c0       	mov    %r8,-0x40(%rsp)
    44ab:	4d 01 f8             	add    %r15,%r8
    44ae:	4c 89 44 24 b8       	mov    %r8,-0x48(%rsp)
    44b3:	4d 01 f8             	add    %r15,%r8
    44b6:	4c 89 44 24 b0       	mov    %r8,-0x50(%rsp)
    44bb:	0f b6 00             	movzbl (%rax),%eax
    44be:	4d 01 f8             	add    %r15,%r8
    44c1:	4c 89 44 24 a8       	mov    %r8,-0x58(%rsp)
    44c6:	c5 f9 6e e8          	vmovd  %eax,%xmm5
    44ca:	41 0f b6 45 00       	movzbl 0x0(%r13),%eax
    44cf:	c4 c3 51 20 2e 01    	vpinsrb $0x1,(%r14),%xmm5,%xmm5
    44d5:	4c 8b ac 24 c8 06 00 	mov    0x6c8(%rsp),%r13
    44dc:	00 
    44dd:	c5 79 6e d0          	vmovd  %eax,%xmm10
    44e1:	0f b6 03             	movzbl (%rbx),%eax
    44e4:	48 8b 9c 24 d0 06 00 	mov    0x6d0(%rsp),%rbx
    44eb:	00 
    44ec:	c4 43 29 20 14 24 01 	vpinsrb $0x1,(%r12),%xmm10,%xmm10
    44f3:	c5 79 6e c8          	vmovd  %eax,%xmm9
    44f7:	41 0f b6 02          	movzbl (%r10),%eax
    44fb:	c4 43 31 20 0b 01    	vpinsrb $0x1,(%r11),%xmm9,%xmm9
    4501:	c4 c1 51 61 ea       	vpunpcklwd %xmm10,%xmm5,%xmm5
    4506:	c5 79 6e c0          	vmovd  %eax,%xmm8
    450a:	0f b6 03             	movzbl (%rbx),%eax
    450d:	c4 43 39 20 01 01    	vpinsrb $0x1,(%r9),%xmm8,%xmm8
    4513:	c5 f9 6e c0          	vmovd  %eax,%xmm0
    4517:	0f b6 06             	movzbl (%rsi),%eax
    451a:	c4 e3 79 20 07 01    	vpinsrb $0x1,(%rdi),%xmm0,%xmm0
    4520:	c4 41 31 61 c8       	vpunpcklwd %xmm8,%xmm9,%xmm9
    4525:	c4 c1 51 62 e9       	vpunpckldq %xmm9,%xmm5,%xmm5
    452a:	c5 f9 6e f8          	vmovd  %eax,%xmm7
    452e:	0f b6 02             	movzbl (%rdx),%eax
    4531:	c4 c3 41 20 7d 00 01 	vpinsrb $0x1,0x0(%r13),%xmm7,%xmm7
    4538:	4c 8b ac 24 c0 06 00 	mov    0x6c0(%rsp),%r13
    453f:	00 
    4540:	c5 f9 6e c8          	vmovd  %eax,%xmm1
    4544:	c5 f9 61 c7          	vpunpcklwd %xmm7,%xmm0,%xmm0
    4548:	c4 c3 71 20 4d 00 01 	vpinsrb $0x1,0x0(%r13),%xmm1,%xmm1
    454f:	4c 8b ac 24 b8 06 00 	mov    0x6b8(%rsp),%r13
    4556:	00 
    4557:	41 0f b6 45 00       	movzbl 0x0(%r13),%eax
    455c:	4c 8b ac 24 b0 06 00 	mov    0x6b0(%rsp),%r13
    4563:	00 
    4564:	c5 f9 6e f0          	vmovd  %eax,%xmm6
    4568:	c4 c3 49 20 75 00 01 	vpinsrb $0x1,0x0(%r13),%xmm6,%xmm6
    456f:	4c 8b ac 24 a8 06 00 	mov    0x6a8(%rsp),%r13
    4576:	00 
    4577:	c5 f1 61 ce          	vpunpcklwd %xmm6,%xmm1,%xmm1
    457b:	41 0f b6 45 00       	movzbl 0x0(%r13),%eax
    4580:	4c 8b ac 24 a0 06 00 	mov    0x6a0(%rsp),%r13
    4587:	00 
    4588:	c5 f9 62 c1          	vpunpckldq %xmm1,%xmm0,%xmm0
    458c:	c5 51 6c c0          	vpunpcklqdq %xmm0,%xmm5,%xmm8
    4590:	c5 f9 6e c0          	vmovd  %eax,%xmm0
    4594:	c4 c3 79 20 45 00 01 	vpinsrb $0x1,0x0(%r13),%xmm0,%xmm0
    459b:	4c 8b ac 24 98 06 00 	mov    0x698(%rsp),%r13
    45a2:	00 
    45a3:	41 0f b6 45 00       	movzbl 0x0(%r13),%eax
    45a8:	4c 8b ac 24 90 06 00 	mov    0x690(%rsp),%r13
    45af:	00 
    45b0:	c5 79 6e d0          	vmovd  %eax,%xmm10
    45b4:	c4 43 29 20 55 00 01 	vpinsrb $0x1,0x0(%r13),%xmm10,%xmm10
    45bb:	4c 8b ac 24 88 06 00 	mov    0x688(%rsp),%r13
    45c2:	00 
    45c3:	41 0f b6 45 00       	movzbl 0x0(%r13),%eax
    45c8:	4c 8b ac 24 80 06 00 	mov    0x680(%rsp),%r13
    45cf:	00 
    45d0:	c4 c1 79 61 c2       	vpunpcklwd %xmm10,%xmm0,%xmm0
    45d5:	4c 8b 84 24 28 07 00 	mov    0x728(%rsp),%r8
    45dc:	00 
    45dd:	c5 79 6e c8          	vmovd  %eax,%xmm9
    45e1:	c4 43 31 20 5d 00 01 	vpinsrb $0x1,0x0(%r13),%xmm9,%xmm11
    45e8:	4c 8b ac 24 78 06 00 	mov    0x678(%rsp),%r13
    45ef:	00 
    45f0:	41 0f b6 45 00       	movzbl 0x0(%r13),%eax
    45f5:	4c 8b ac 24 70 06 00 	mov    0x670(%rsp),%r13
    45fc:	00 
    45fd:	c5 79 6e c8          	vmovd  %eax,%xmm9
    4601:	c4 43 31 20 4d 00 01 	vpinsrb $0x1,0x0(%r13),%xmm9,%xmm9
    4608:	4c 8b ac 24 68 06 00 	mov    0x668(%rsp),%r13
    460f:	00 
    4610:	41 0f b6 45 00       	movzbl 0x0(%r13),%eax
    4615:	4c 8b ac 24 60 06 00 	mov    0x660(%rsp),%r13
    461c:	00 
    461d:	c4 41 21 61 c9       	vpunpcklwd %xmm9,%xmm11,%xmm9
    4622:	c4 c1 79 62 c1       	vpunpckldq %xmm9,%xmm0,%xmm0
    4627:	c5 f9 6e e8          	vmovd  %eax,%xmm5
    462b:	c4 c3 51 20 6d 00 01 	vpinsrb $0x1,0x0(%r13),%xmm5,%xmm5
    4632:	4c 8b ac 24 58 06 00 	mov    0x658(%rsp),%r13
    4639:	00 
    463a:	41 0f b6 45 00       	movzbl 0x0(%r13),%eax
    463f:	4c 8b ac 24 50 06 00 	mov    0x650(%rsp),%r13
    4646:	00 
    4647:	c5 f9 6e f8          	vmovd  %eax,%xmm7
    464b:	c4 c3 41 20 7d 00 01 	vpinsrb $0x1,0x0(%r13),%xmm7,%xmm7
    4652:	4c 8b ac 24 48 06 00 	mov    0x648(%rsp),%r13
    4659:	00 
    465a:	41 0f b6 45 00       	movzbl 0x0(%r13),%eax
    465f:	4c 8b ac 24 40 06 00 	mov    0x640(%rsp),%r13
    4666:	00 
    4667:	c5 d1 61 ef          	vpunpcklwd %xmm7,%xmm5,%xmm5
    466b:	c5 f9 6e c8          	vmovd  %eax,%xmm1
    466f:	c4 c3 71 20 4d 00 01 	vpinsrb $0x1,0x0(%r13),%xmm1,%xmm1
    4676:	4c 8b ac 24 38 06 00 	mov    0x638(%rsp),%r13
    467d:	00 
    467e:	41 0f b6 45 00       	movzbl 0x0(%r13),%eax
    4683:	c5 f9 6e f0          	vmovd  %eax,%xmm6
    4687:	41 0f b6 00          	movzbl (%r8),%eax
    468b:	c4 83 49 20 74 3d 00 	vpinsrb $0x1,0x0(%r13,%r15,1),%xmm6,%xmm6
    4692:	01 
    4693:	4c 8b ac 24 30 06 00 	mov    0x630(%rsp),%r13
    469a:	00 
    469b:	c5 f1 61 ce          	vpunpcklwd %xmm6,%xmm1,%xmm1
    469f:	c5 f9 6e f0          	vmovd  %eax,%xmm6
    46a3:	c4 c3 49 20 75 00 01 	vpinsrb $0x1,0x0(%r13),%xmm6,%xmm6
    46aa:	4c 8b ac 24 28 06 00 	mov    0x628(%rsp),%r13
    46b1:	00 
    46b2:	c5 d1 62 e9          	vpunpckldq %xmm1,%xmm5,%xmm5
    46b6:	c5 f9 6c c5          	vpunpcklqdq %xmm5,%xmm0,%xmm0
    46ba:	41 0f b6 45 00       	movzbl 0x0(%r13),%eax
    46bf:	4c 8b ac 24 20 06 00 	mov    0x620(%rsp),%r13
    46c6:	00 
    46c7:	c4 e3 3d 38 c8 01    	vinserti128 $0x1,%xmm0,%ymm8,%ymm1
    46cd:	c5 79 6e d0          	vmovd  %eax,%xmm10
    46d1:	c4 43 29 20 55 00 01 	vpinsrb $0x1,0x0(%r13),%xmm10,%xmm10
    46d8:	4c 8b ac 24 18 06 00 	mov    0x618(%rsp),%r13
    46df:	00 
    46e0:	41 0f b6 45 00       	movzbl 0x0(%r13),%eax
    46e5:	4c 8b ac 24 10 06 00 	mov    0x610(%rsp),%r13
    46ec:	00 
    46ed:	c4 c1 49 61 f2       	vpunpcklwd %xmm10,%xmm6,%xmm6
    46f2:	c5 79 6e c8          	vmovd  %eax,%xmm9
    46f6:	c4 43 31 20 5d 00 01 	vpinsrb $0x1,0x0(%r13),%xmm9,%xmm11
    46fd:	4c 8b ac 24 08 06 00 	mov    0x608(%rsp),%r13
    4704:	00 
    4705:	41 0f b6 45 00       	movzbl 0x0(%r13),%eax
    470a:	4c 8b ac 24 00 06 00 	mov    0x600(%rsp),%r13
    4711:	00 
    4712:	c5 79 6e c8          	vmovd  %eax,%xmm9
    4716:	c4 43 31 20 4d 00 01 	vpinsrb $0x1,0x0(%r13),%xmm9,%xmm9
    471d:	4c 8b ac 24 f8 05 00 	mov    0x5f8(%rsp),%r13
    4724:	00 
    4725:	41 0f b6 45 00       	movzbl 0x0(%r13),%eax
    472a:	4c 8b ac 24 f0 05 00 	mov    0x5f0(%rsp),%r13
    4731:	00 
    4732:	c4 41 21 61 c9       	vpunpcklwd %xmm9,%xmm11,%xmm9
    4737:	c4 c1 49 62 f1       	vpunpckldq %xmm9,%xmm6,%xmm6
    473c:	c5 f9 6e e8          	vmovd  %eax,%xmm5
    4740:	c4 c3 51 20 6d 00 01 	vpinsrb $0x1,0x0(%r13),%xmm5,%xmm5
    4747:	4c 8b ac 24 e8 05 00 	mov    0x5e8(%rsp),%r13
    474e:	00 
    474f:	41 0f b6 45 00       	movzbl 0x0(%r13),%eax
    4754:	4c 8b ac 24 e0 05 00 	mov    0x5e0(%rsp),%r13
    475b:	00 
    475c:	c5 79 6e c0          	vmovd  %eax,%xmm8
    4760:	c4 43 39 20 45 00 01 	vpinsrb $0x1,0x0(%r13),%xmm8,%xmm8
    4767:	4c 8b ac 24 d8 05 00 	mov    0x5d8(%rsp),%r13
    476e:	00 
    476f:	41 0f b6 45 00       	movzbl 0x0(%r13),%eax
    4774:	4c 8b ac 24 d0 05 00 	mov    0x5d0(%rsp),%r13
    477b:	00 
    477c:	c4 c1 51 61 e8       	vpunpcklwd %xmm8,%xmm5,%xmm5
    4781:	c5 f9 6e c0          	vmovd  %eax,%xmm0
    4785:	c4 c3 79 20 45 00 01 	vpinsrb $0x1,0x0(%r13),%xmm0,%xmm0
    478c:	4c 8b ac 24 c8 05 00 	mov    0x5c8(%rsp),%r13
    4793:	00 
    4794:	41 0f b6 45 00       	movzbl 0x0(%r13),%eax
    4799:	4c 8b ac 24 c0 05 00 	mov    0x5c0(%rsp),%r13
    47a0:	00 
    47a1:	c5 f9 6e f8          	vmovd  %eax,%xmm7
    47a5:	c4 c3 41 20 7d 00 01 	vpinsrb $0x1,0x0(%r13),%xmm7,%xmm7
    47ac:	4c 8b ac 24 b8 05 00 	mov    0x5b8(%rsp),%r13
    47b3:	00 
    47b4:	c5 f9 61 c7          	vpunpcklwd %xmm7,%xmm0,%xmm0
    47b8:	41 0f b6 45 00       	movzbl 0x0(%r13),%eax
    47bd:	4c 8b ac 24 b0 05 00 	mov    0x5b0(%rsp),%r13
    47c4:	00 
    47c5:	c5 d1 62 c0          	vpunpckldq %xmm0,%xmm5,%xmm0
    47c9:	c5 49 6c c8          	vpunpcklqdq %xmm0,%xmm6,%xmm9
    47cd:	c5 f9 6e c0          	vmovd  %eax,%xmm0
    47d1:	c4 c3 79 20 45 00 01 	vpinsrb $0x1,0x0(%r13),%xmm0,%xmm0
    47d8:	4c 8b ac 24 a8 05 00 	mov    0x5a8(%rsp),%r13
    47df:	00 
    47e0:	41 0f b6 45 00       	movzbl 0x0(%r13),%eax
    47e5:	4c 8b ac 24 a0 05 00 	mov    0x5a0(%rsp),%r13
    47ec:	00 
    47ed:	c5 79 6e c0          	vmovd  %eax,%xmm8
    47f1:	c4 43 39 20 45 00 01 	vpinsrb $0x1,0x0(%r13),%xmm8,%xmm8
    47f8:	4c 8b ac 24 98 05 00 	mov    0x598(%rsp),%r13
    47ff:	00 
    4800:	41 0f b6 45 00       	movzbl 0x0(%r13),%eax
    4805:	4c 8b ac 24 90 05 00 	mov    0x590(%rsp),%r13
    480c:	00 
    480d:	c4 c1 79 61 c0       	vpunpcklwd %xmm8,%xmm0,%xmm0
    4812:	c5 f9 6e f8          	vmovd  %eax,%xmm7
    4816:	c4 43 41 20 5d 00 01 	vpinsrb $0x1,0x0(%r13),%xmm7,%xmm11
    481d:	4c 8b ac 24 88 05 00 	mov    0x588(%rsp),%r13
    4824:	00 
    4825:	4c 8b a4 24 40 05 00 	mov    0x540(%rsp),%r12
    482c:	00 
    482d:	41 0f b6 45 00       	movzbl 0x0(%r13),%eax
    4832:	4c 8b ac 24 80 05 00 	mov    0x580(%rsp),%r13
    4839:	00 
    483a:	c5 f9 6e f8          	vmovd  %eax,%xmm7
    483e:	c4 c3 41 20 7d 00 01 	vpinsrb $0x1,0x0(%r13),%xmm7,%xmm7
    4845:	4c 8b ac 24 78 05 00 	mov    0x578(%rsp),%r13
    484c:	00 
    484d:	41 0f b6 45 00       	movzbl 0x0(%r13),%eax
    4852:	4c 8b ac 24 70 05 00 	mov    0x570(%rsp),%r13
    4859:	00 
    485a:	c5 a1 61 ff          	vpunpcklwd %xmm7,%xmm11,%xmm7
    485e:	c5 f9 62 c7          	vpunpckldq %xmm7,%xmm0,%xmm0
    4862:	c5 f9 6e e8          	vmovd  %eax,%xmm5
    4866:	c4 c3 51 20 6d 00 01 	vpinsrb $0x1,0x0(%r13),%xmm5,%xmm5
    486d:	4c 8b ac 24 68 05 00 	mov    0x568(%rsp),%r13
    4874:	00 
    4875:	41 0f b6 45 00       	movzbl 0x0(%r13),%eax
    487a:	4c 8b ac 24 60 05 00 	mov    0x560(%rsp),%r13
    4881:	00 
    4882:	c5 79 6e e0          	vmovd  %eax,%xmm12
    4886:	c4 43 19 20 65 00 01 	vpinsrb $0x1,0x0(%r13),%xmm12,%xmm12
    488d:	4c 8b ac 24 58 05 00 	mov    0x558(%rsp),%r13
    4894:	00 
    4895:	41 0f b6 45 00       	movzbl 0x0(%r13),%eax
    489a:	4c 8b ac 24 50 05 00 	mov    0x550(%rsp),%r13
    48a1:	00 
    48a2:	c4 c1 51 61 ec       	vpunpcklwd %xmm12,%xmm5,%xmm5
    48a7:	c5 f9 6e f0          	vmovd  %eax,%xmm6
    48ab:	c4 43 49 20 55 00 01 	vpinsrb $0x1,0x0(%r13),%xmm6,%xmm10
    48b2:	4c 8b ac 24 48 05 00 	mov    0x548(%rsp),%r13
    48b9:	00 
    48ba:	41 0f b6 45 00       	movzbl 0x0(%r13),%eax
    48bf:	c5 f9 6e f0          	vmovd  %eax,%xmm6
    48c3:	c4 83 49 20 74 3d 00 	vpinsrb $0x1,0x0(%r13,%r15,1),%xmm6,%xmm6
    48ca:	01 
    48cb:	4c 8b ac 24 20 07 00 	mov    0x720(%rsp),%r13
    48d2:	00 
    48d3:	c5 a9 61 f6          	vpunpcklwd %xmm6,%xmm10,%xmm6
    48d7:	41 0f b6 45 00       	movzbl 0x0(%r13),%eax
    48dc:	c5 d1 62 ee          	vpunpckldq %xmm6,%xmm5,%xmm5
    48e0:	c5 f9 6c c5          	vpunpcklqdq %xmm5,%xmm0,%xmm0
    48e4:	c4 e3 35 38 f0 01    	vinserti128 $0x1,%xmm0,%ymm9,%ymm6
    48ea:	c5 f5 fc ce          	vpaddb %ymm6,%ymm1,%ymm1
    48ee:	c5 f9 6e f0          	vmovd  %eax,%xmm6
    48f2:	c4 c3 49 20 34 24 01 	vpinsrb $0x1,(%r12),%xmm6,%xmm6
    48f9:	4c 8b a4 24 38 05 00 	mov    0x538(%rsp),%r12
    4900:	00 
    4901:	41 0f b6 04 24       	movzbl (%r12),%eax
    4906:	4c 8b a4 24 30 05 00 	mov    0x530(%rsp),%r12
    490d:	00 
    490e:	c5 79 6e d0          	vmovd  %eax,%xmm10
    4912:	c4 43 29 20 14 24 01 	vpinsrb $0x1,(%r12),%xmm10,%xmm10
    4919:	4c 8b a4 24 28 05 00 	mov    0x528(%rsp),%r12
    4920:	00 
    4921:	41 0f b6 04 24       	movzbl (%r12),%eax
    4926:	4c 8b a4 24 20 05 00 	mov    0x520(%rsp),%r12
    492d:	00 
    492e:	c4 c1 49 61 f2       	vpunpcklwd %xmm10,%xmm6,%xmm6
    4933:	c5 79 6e c8          	vmovd  %eax,%xmm9
    4937:	c4 43 31 20 1c 24 01 	vpinsrb $0x1,(%r12),%xmm9,%xmm11
    493e:	4c 8b a4 24 18 05 00 	mov    0x518(%rsp),%r12
    4945:	00 
    4946:	41 0f b6 04 24       	movzbl (%r12),%eax
    494b:	4c 8b a4 24 10 05 00 	mov    0x510(%rsp),%r12
    4952:	00 
    4953:	c5 79 6e c8          	vmovd  %eax,%xmm9
    4957:	c4 43 31 20 0c 24 01 	vpinsrb $0x1,(%r12),%xmm9,%xmm9
    495e:	4c 8b a4 24 08 05 00 	mov    0x508(%rsp),%r12
    4965:	00 
    4966:	41 0f b6 04 24       	movzbl (%r12),%eax
    496b:	4c 8b a4 24 00 05 00 	mov    0x500(%rsp),%r12
    4972:	00 
    4973:	c4 41 21 61 c9       	vpunpcklwd %xmm9,%xmm11,%xmm9
    4978:	c4 c1 49 62 f1       	vpunpckldq %xmm9,%xmm6,%xmm6
    497d:	c5 f9 6e e8          	vmovd  %eax,%xmm5
    4981:	c4 c3 51 20 2c 24 01 	vpinsrb $0x1,(%r12),%xmm5,%xmm5
    4988:	4c 8b a4 24 f8 04 00 	mov    0x4f8(%rsp),%r12
    498f:	00 
    4990:	41 0f b6 04 24       	movzbl (%r12),%eax
    4995:	4c 8b a4 24 f0 04 00 	mov    0x4f0(%rsp),%r12
    499c:	00 
    499d:	c5 79 6e c0          	vmovd  %eax,%xmm8
    49a1:	c4 43 39 20 04 24 01 	vpinsrb $0x1,(%r12),%xmm8,%xmm8
    49a8:	4c 8b a4 24 e8 04 00 	mov    0x4e8(%rsp),%r12
    49af:	00 
    49b0:	41 0f b6 04 24       	movzbl (%r12),%eax
    49b5:	4c 8b a4 24 e0 04 00 	mov    0x4e0(%rsp),%r12
    49bc:	00 
    49bd:	c4 c1 51 61 e8       	vpunpcklwd %xmm8,%xmm5,%xmm5
    49c2:	c5 f9 6e c0          	vmovd  %eax,%xmm0
    49c6:	c4 c3 79 20 04 24 01 	vpinsrb $0x1,(%r12),%xmm0,%xmm0
    49cd:	4c 8b a4 24 d8 04 00 	mov    0x4d8(%rsp),%r12
    49d4:	00 
    49d5:	41 0f b6 04 24       	movzbl (%r12),%eax
    49da:	4c 8b a4 24 d0 04 00 	mov    0x4d0(%rsp),%r12
    49e1:	00 
    49e2:	c5 f9 6e f8          	vmovd  %eax,%xmm7
    49e6:	c4 c3 41 20 3c 24 01 	vpinsrb $0x1,(%r12),%xmm7,%xmm7
    49ed:	4c 8b a4 24 c8 04 00 	mov    0x4c8(%rsp),%r12
    49f4:	00 
    49f5:	c5 f9 61 c7          	vpunpcklwd %xmm7,%xmm0,%xmm0
    49f9:	41 0f b6 04 24       	movzbl (%r12),%eax
    49fe:	4c 8b a4 24 c0 04 00 	mov    0x4c0(%rsp),%r12
    4a05:	00 
    4a06:	c5 d1 62 c0          	vpunpckldq %xmm0,%xmm5,%xmm0
    4a0a:	c5 c9 6c f8          	vpunpcklqdq %xmm0,%xmm6,%xmm7
    4a0e:	c5 f9 6e c0          	vmovd  %eax,%xmm0
    4a12:	c4 c3 79 20 04 24 01 	vpinsrb $0x1,(%r12),%xmm0,%xmm0
    4a19:	4c 8b a4 24 b8 04 00 	mov    0x4b8(%rsp),%r12
    4a20:	00 
    4a21:	41 0f b6 04 24       	movzbl (%r12),%eax
    4a26:	4c 8b a4 24 b0 04 00 	mov    0x4b0(%rsp),%r12
    4a2d:	00 
    4a2e:	c5 79 6e c8          	vmovd  %eax,%xmm9
    4a32:	c4 43 31 20 0c 24 01 	vpinsrb $0x1,(%r12),%xmm9,%xmm9
    4a39:	4c 8b a4 24 a8 04 00 	mov    0x4a8(%rsp),%r12
    4a40:	00 
    4a41:	41 0f b6 04 24       	movzbl (%r12),%eax
    4a46:	4c 8b a4 24 a0 04 00 	mov    0x4a0(%rsp),%r12
    4a4d:	00 
    4a4e:	c4 c1 79 61 c1       	vpunpcklwd %xmm9,%xmm0,%xmm0
    4a53:	c5 79 6e c0          	vmovd  %eax,%xmm8
    4a57:	c4 43 39 20 1c 24 01 	vpinsrb $0x1,(%r12),%xmm8,%xmm11
    4a5e:	4c 8b a4 24 98 04 00 	mov    0x498(%rsp),%r12
    4a65:	00 
    4a66:	48 8b 9c 24 50 04 00 	mov    0x450(%rsp),%rbx
    4a6d:	00 
    4a6e:	41 0f b6 04 24       	movzbl (%r12),%eax
    4a73:	4c 8b a4 24 90 04 00 	mov    0x490(%rsp),%r12
    4a7a:	00 
    4a7b:	c5 79 6e c0          	vmovd  %eax,%xmm8
    4a7f:	c4 43 39 20 04 24 01 	vpinsrb $0x1,(%r12),%xmm8,%xmm8
    4a86:	4c 8b a4 24 88 04 00 	mov    0x488(%rsp),%r12
    4a8d:	00 
    4a8e:	41 0f b6 04 24       	movzbl (%r12),%eax
    4a93:	4c 8b a4 24 80 04 00 	mov    0x480(%rsp),%r12
    4a9a:	00 
    4a9b:	c4 41 21 61 c0       	vpunpcklwd %xmm8,%xmm11,%xmm8
    4aa0:	c4 c1 79 62 c0       	vpunpckldq %xmm8,%xmm0,%xmm0
    4aa5:	c5 f9 6e e8          	vmovd  %eax,%xmm5
    4aa9:	c4 c3 51 20 2c 24 01 	vpinsrb $0x1,(%r12),%xmm5,%xmm5
    4ab0:	4c 8b a4 24 78 04 00 	mov    0x478(%rsp),%r12
    4ab7:	00 
    4ab8:	41 0f b6 04 24       	movzbl (%r12),%eax
    4abd:	4c 8b a4 24 70 04 00 	mov    0x470(%rsp),%r12
    4ac4:	00 
    4ac5:	c5 79 6e e0          	vmovd  %eax,%xmm12
    4ac9:	c4 43 19 20 24 24 01 	vpinsrb $0x1,(%r12),%xmm12,%xmm12
    4ad0:	4c 8b a4 24 68 04 00 	mov    0x468(%rsp),%r12
    4ad7:	00 
    4ad8:	41 0f b6 04 24       	movzbl (%r12),%eax
    4add:	4c 8b a4 24 60 04 00 	mov    0x460(%rsp),%r12
    4ae4:	00 
    4ae5:	c4 c1 51 61 ec       	vpunpcklwd %xmm12,%xmm5,%xmm5
    4aea:	c5 f9 6e f0          	vmovd  %eax,%xmm6
    4aee:	c4 43 49 20 14 24 01 	vpinsrb $0x1,(%r12),%xmm6,%xmm10
    4af5:	4c 8b a4 24 58 04 00 	mov    0x458(%rsp),%r12
    4afc:	00 
    4afd:	41 0f b6 04 24       	movzbl (%r12),%eax
    4b02:	c5 f9 6e f0          	vmovd  %eax,%xmm6
    4b06:	c4 83 49 20 34 3c 01 	vpinsrb $0x1,(%r12,%r15,1),%xmm6,%xmm6
    4b0d:	4c 8b a4 24 18 07 00 	mov    0x718(%rsp),%r12
    4b14:	00 
    4b15:	c5 a9 61 f6          	vpunpcklwd %xmm6,%xmm10,%xmm6
    4b19:	41 0f b6 04 24       	movzbl (%r12),%eax
    4b1e:	c5 d1 62 ee          	vpunpckldq %xmm6,%xmm5,%xmm5
    4b22:	c5 f9 6c c5          	vpunpcklqdq %xmm5,%xmm0,%xmm0
    4b26:	c5 f9 6e e8          	vmovd  %eax,%xmm5
    4b2a:	c4 e3 51 20 2b 01    	vpinsrb $0x1,(%rbx),%xmm5,%xmm5
    4b30:	48 8b 9c 24 48 04 00 	mov    0x448(%rsp),%rbx
    4b37:	00 
    4b38:	c4 e3 45 38 f8 01    	vinserti128 $0x1,%xmm0,%ymm7,%ymm7
    4b3e:	0f b6 03             	movzbl (%rbx),%eax
    4b41:	48 8b 9c 24 40 04 00 	mov    0x440(%rsp),%rbx
    4b48:	00 
    4b49:	c5 79 6e c8          	vmovd  %eax,%xmm9
    4b4d:	c4 63 31 20 0b 01    	vpinsrb $0x1,(%rbx),%xmm9,%xmm9
    4b53:	48 8b 9c 24 38 04 00 	mov    0x438(%rsp),%rbx
    4b5a:	00 
    4b5b:	0f b6 03             	movzbl (%rbx),%eax
    4b5e:	48 8b 9c 24 30 04 00 	mov    0x430(%rsp),%rbx
    4b65:	00 
    4b66:	c4 c1 51 61 e9       	vpunpcklwd %xmm9,%xmm5,%xmm5
    4b6b:	c5 79 6e c0          	vmovd  %eax,%xmm8
    4b6f:	c4 63 39 20 1b 01    	vpinsrb $0x1,(%rbx),%xmm8,%xmm11
    4b75:	48 8b 9c 24 28 04 00 	mov    0x428(%rsp),%rbx
    4b7c:	00 
    4b7d:	0f b6 03             	movzbl (%rbx),%eax
    4b80:	48 8b 9c 24 20 04 00 	mov    0x420(%rsp),%rbx
    4b87:	00 
    4b88:	c5 79 6e c0          	vmovd  %eax,%xmm8
    4b8c:	c4 63 39 20 03 01    	vpinsrb $0x1,(%rbx),%xmm8,%xmm8
    4b92:	48 8b 9c 24 18 04 00 	mov    0x418(%rsp),%rbx
    4b99:	00 
    4b9a:	0f b6 03             	movzbl (%rbx),%eax
    4b9d:	48 8b 9c 24 10 04 00 	mov    0x410(%rsp),%rbx
    4ba4:	00 
    4ba5:	c4 41 21 61 c0       	vpunpcklwd %xmm8,%xmm11,%xmm8
    4baa:	c4 c1 51 62 e8       	vpunpckldq %xmm8,%xmm5,%xmm5
    4baf:	c5 f9 6e c0          	vmovd  %eax,%xmm0
    4bb3:	c4 e3 79 20 03 01    	vpinsrb $0x1,(%rbx),%xmm0,%xmm0
    4bb9:	48 8b 9c 24 08 04 00 	mov    0x408(%rsp),%rbx
    4bc0:	00 
    4bc1:	0f b6 03             	movzbl (%rbx),%eax
    4bc4:	48 8b 9c 24 00 04 00 	mov    0x400(%rsp),%rbx
    4bcb:	00 
    4bcc:	c5 79 6e e0          	vmovd  %eax,%xmm12
    4bd0:	c4 63 19 20 23 01    	vpinsrb $0x1,(%rbx),%xmm12,%xmm12
    4bd6:	48 8b 9c 24 f8 03 00 	mov    0x3f8(%rsp),%rbx
    4bdd:	00 
    4bde:	0f b6 03             	movzbl (%rbx),%eax
    4be1:	48 8b 9c 24 f0 03 00 	mov    0x3f0(%rsp),%rbx
    4be8:	00 
    4be9:	c4 c1 79 61 c4       	vpunpcklwd %xmm12,%xmm0,%xmm0
    4bee:	c5 f9 6e f0          	vmovd  %eax,%xmm6
    4bf2:	c4 63 49 20 13 01    	vpinsrb $0x1,(%rbx),%xmm6,%xmm10
    4bf8:	48 8b 9c 24 e8 03 00 	mov    0x3e8(%rsp),%rbx
    4bff:	00 
    4c00:	0f b6 03             	movzbl (%rbx),%eax
    4c03:	48 8b 9c 24 e0 03 00 	mov    0x3e0(%rsp),%rbx
    4c0a:	00 
    4c0b:	c5 f9 6e f0          	vmovd  %eax,%xmm6
    4c0f:	c4 e3 49 20 33 01    	vpinsrb $0x1,(%rbx),%xmm6,%xmm6
    4c15:	48 8b 9c 24 d8 03 00 	mov    0x3d8(%rsp),%rbx
    4c1c:	00 
    4c1d:	c5 a9 61 f6          	vpunpcklwd %xmm6,%xmm10,%xmm6
    4c21:	0f b6 03             	movzbl (%rbx),%eax
    4c24:	48 8b 9c 24 d0 03 00 	mov    0x3d0(%rsp),%rbx
    4c2b:	00 
    4c2c:	c5 f9 62 c6          	vpunpckldq %xmm6,%xmm0,%xmm0
    4c30:	c5 51 6c c8          	vpunpcklqdq %xmm0,%xmm5,%xmm9
    4c34:	c5 f9 6e c0          	vmovd  %eax,%xmm0
    4c38:	c4 e3 79 20 03 01    	vpinsrb $0x1,(%rbx),%xmm0,%xmm0
    4c3e:	48 8b 9c 24 c8 03 00 	mov    0x3c8(%rsp),%rbx
    4c45:	00 
    4c46:	0f b6 03             	movzbl (%rbx),%eax
    4c49:	48 8b 9c 24 c0 03 00 	mov    0x3c0(%rsp),%rbx
    4c50:	00 
    4c51:	c5 79 6e c0          	vmovd  %eax,%xmm8
    4c55:	c4 63 39 20 03 01    	vpinsrb $0x1,(%rbx),%xmm8,%xmm8
    4c5b:	48 8b 9c 24 b8 03 00 	mov    0x3b8(%rsp),%rbx
    4c62:	00 
    4c63:	0f b6 03             	movzbl (%rbx),%eax
    4c66:	48 8b 9c 24 b0 03 00 	mov    0x3b0(%rsp),%rbx
    4c6d:	00 
    4c6e:	c4 c1 79 61 c0       	vpunpcklwd %xmm8,%xmm0,%xmm0
    4c73:	c5 79 6e d8          	vmovd  %eax,%xmm11
    4c77:	c4 63 21 20 1b 01    	vpinsrb $0x1,(%rbx),%xmm11,%xmm11
    4c7d:	48 8b 9c 24 a8 03 00 	mov    0x3a8(%rsp),%rbx
    4c84:	00 
    4c85:	0f b6 03             	movzbl (%rbx),%eax
    4c88:	48 8b 9c 24 a0 03 00 	mov    0x3a0(%rsp),%rbx
    4c8f:	00 
    4c90:	4c 8b b4 24 60 03 00 	mov    0x360(%rsp),%r14
    4c97:	00 
    4c98:	4c 8b 9c 24 58 03 00 	mov    0x358(%rsp),%r11
    4c9f:	00 
    4ca0:	c5 f9 6e f0          	vmovd  %eax,%xmm6
    4ca4:	c4 e3 49 20 33 01    	vpinsrb $0x1,(%rbx),%xmm6,%xmm6
    4caa:	48 8b 9c 24 98 03 00 	mov    0x398(%rsp),%rbx
    4cb1:	00 
    4cb2:	4c 8b 8c 24 50 03 00 	mov    0x350(%rsp),%r9
    4cb9:	00 
    4cba:	0f b6 03             	movzbl (%rbx),%eax
    4cbd:	48 8b 9c 24 90 03 00 	mov    0x390(%rsp),%rbx
    4cc4:	00 
    4cc5:	c5 21 61 c6          	vpunpcklwd %xmm6,%xmm11,%xmm8
    4cc9:	c4 c1 79 62 c0       	vpunpckldq %xmm8,%xmm0,%xmm0
    4cce:	c5 f9 6e e8          	vmovd  %eax,%xmm5
    4cd2:	c4 e3 51 20 2b 01    	vpinsrb $0x1,(%rbx),%xmm5,%xmm5
    4cd8:	48 8b 9c 24 88 03 00 	mov    0x388(%rsp),%rbx
    4cdf:	00 
    4ce0:	0f b6 03             	movzbl (%rbx),%eax
    4ce3:	48 8b 9c 24 80 03 00 	mov    0x380(%rsp),%rbx
    4cea:	00 
    4ceb:	c5 79 6e e8          	vmovd  %eax,%xmm13
    4cef:	c4 63 11 20 2b 01    	vpinsrb $0x1,(%rbx),%xmm13,%xmm13
    4cf5:	48 8b 9c 24 78 03 00 	mov    0x378(%rsp),%rbx
    4cfc:	00 
    4cfd:	0f b6 03             	movzbl (%rbx),%eax
    4d00:	48 8b 9c 24 70 03 00 	mov    0x370(%rsp),%rbx
    4d07:	00 
    4d08:	c4 c1 51 61 ed       	vpunpcklwd %xmm13,%xmm5,%xmm5
    4d0d:	c5 79 6e d0          	vmovd  %eax,%xmm10
    4d11:	c4 63 29 20 13 01    	vpinsrb $0x1,(%rbx),%xmm10,%xmm10
    4d17:	48 8b 9c 24 68 03 00 	mov    0x368(%rsp),%rbx
    4d1e:	00 
    4d1f:	0f b6 03             	movzbl (%rbx),%eax
    4d22:	c5 79 6e e0          	vmovd  %eax,%xmm12
    4d26:	c4 23 19 20 24 3b 01 	vpinsrb $0x1,(%rbx,%r15,1),%xmm12,%xmm12
    4d2d:	48 8b 9c 24 10 07 00 	mov    0x710(%rsp),%rbx
    4d34:	00 
    4d35:	0f b6 03             	movzbl (%rbx),%eax
    4d38:	c4 c1 29 61 f4       	vpunpcklwd %xmm12,%xmm10,%xmm6
    4d3d:	c5 d1 62 ee          	vpunpckldq %xmm6,%xmm5,%xmm5
    4d41:	c5 f9 6e f0          	vmovd  %eax,%xmm6
    4d45:	41 0f b6 03          	movzbl (%r11),%eax
    4d49:	c4 c3 49 20 36 01    	vpinsrb $0x1,(%r14),%xmm6,%xmm6
    4d4f:	c5 f9 6c c5          	vpunpcklqdq %xmm5,%xmm0,%xmm0
    4d53:	4c 8b b4 24 48 03 00 	mov    0x348(%rsp),%r14
    4d5a:	00 
    4d5b:	4c 8b 9c 24 40 03 00 	mov    0x340(%rsp),%r11
    4d62:	00 
    4d63:	c4 e3 35 38 e8 01    	vinserti128 $0x1,%xmm0,%ymm9,%ymm5
    4d69:	c5 79 6e d0          	vmovd  %eax,%xmm10
    4d6d:	c4 43 29 20 11 01    	vpinsrb $0x1,(%r9),%xmm10,%xmm10
    4d73:	c5 c5 fc fd          	vpaddb %ymm5,%ymm7,%ymm7
    4d77:	4c 8b 8c 24 38 03 00 	mov    0x338(%rsp),%r9
    4d7e:	00 
    4d7f:	41 0f b6 06          	movzbl (%r14),%eax
    4d83:	c5 f5 fc cf          	vpaddb %ymm7,%ymm1,%ymm1
    4d87:	c4 c1 49 61 f2       	vpunpcklwd %xmm10,%xmm6,%xmm6
    4d8c:	c5 79 6e c8          	vmovd  %eax,%xmm9
    4d90:	41 0f b6 01          	movzbl (%r9),%eax
    4d94:	c4 43 31 20 1b 01    	vpinsrb $0x1,(%r11),%xmm9,%xmm11
    4d9a:	4c 8b b4 24 30 03 00 	mov    0x330(%rsp),%r14
    4da1:	00 
    4da2:	4c 8b 9c 24 28 03 00 	mov    0x328(%rsp),%r11
    4da9:	00 
    4daa:	4c 8b 8c 24 20 03 00 	mov    0x320(%rsp),%r9
    4db1:	00 
    4db2:	c5 79 6e c8          	vmovd  %eax,%xmm9
    4db6:	41 0f b6 03          	movzbl (%r11),%eax
    4dba:	c4 43 31 20 0e 01    	vpinsrb $0x1,(%r14),%xmm9,%xmm9
    4dc0:	4c 8b b4 24 18 03 00 	mov    0x318(%rsp),%r14
    4dc7:	00 
    4dc8:	4c 8b 9c 24 10 03 00 	mov    0x310(%rsp),%r11
    4dcf:	00 
    4dd0:	c5 f9 6e e8          	vmovd  %eax,%xmm5
    4dd4:	c4 c3 51 20 29 01    	vpinsrb $0x1,(%r9),%xmm5,%xmm5
    4dda:	c4 41 21 61 c9       	vpunpcklwd %xmm9,%xmm11,%xmm9
    4ddf:	4c 8b 8c 24 08 03 00 	mov    0x308(%rsp),%r9
    4de6:	00 
    4de7:	41 0f b6 06          	movzbl (%r14),%eax
    4deb:	4c 8b b4 24 00 03 00 	mov    0x300(%rsp),%r14
    4df2:	00 
    4df3:	c4 c1 49 62 f1       	vpunpckldq %xmm9,%xmm6,%xmm6
    4df8:	c5 79 6e c0          	vmovd  %eax,%xmm8
    4dfc:	41 0f b6 01          	movzbl (%r9),%eax
    4e00:	c4 43 39 20 03 01    	vpinsrb $0x1,(%r11),%xmm8,%xmm8
    4e06:	4c 8b 9c 24 f8 02 00 	mov    0x2f8(%rsp),%r11
    4e0d:	00 
    4e0e:	4c 8b 8c 24 f0 02 00 	mov    0x2f0(%rsp),%r9
    4e15:	00 
    4e16:	c5 f9 6e c0          	vmovd  %eax,%xmm0
    4e1a:	c4 c3 79 20 06 01    	vpinsrb $0x1,(%r14),%xmm0,%xmm0
    4e20:	c4 c1 51 61 e8       	vpunpcklwd %xmm8,%xmm5,%xmm5
    4e25:	4c 8b b4 24 e8 02 00 	mov    0x2e8(%rsp),%r14
    4e2c:	00 
    4e2d:	41 0f b6 03          	movzbl (%r11),%eax
    4e31:	4c 8b 9c 24 e0 02 00 	mov    0x2e0(%rsp),%r11
    4e38:	00 
    4e39:	c5 f9 6e f8          	vmovd  %eax,%xmm7
    4e3d:	c4 c3 41 20 39 01    	vpinsrb $0x1,(%r9),%xmm7,%xmm7
    4e43:	41 0f b6 06          	movzbl (%r14),%eax
    4e47:	4c 8b 8c 24 d8 02 00 	mov    0x2d8(%rsp),%r9
    4e4e:	00 
    4e4f:	4c 8b b4 24 d0 02 00 	mov    0x2d0(%rsp),%r14
    4e56:	00 
    4e57:	c5 f9 61 c7          	vpunpcklwd %xmm7,%xmm0,%xmm0
    4e5b:	c5 d1 62 c0          	vpunpckldq %xmm0,%xmm5,%xmm0
    4e5f:	c5 c9 6c f8          	vpunpcklqdq %xmm0,%xmm6,%xmm7
    4e63:	c5 f9 6e c0          	vmovd  %eax,%xmm0
    4e67:	41 0f b6 01          	movzbl (%r9),%eax
    4e6b:	c4 c3 79 20 03 01    	vpinsrb $0x1,(%r11),%xmm0,%xmm0
    4e71:	4c 8b 9c 24 c8 02 00 	mov    0x2c8(%rsp),%r11
    4e78:	00 
    4e79:	4c 8b 8c 24 c0 02 00 	mov    0x2c0(%rsp),%r9
    4e80:	00 
    4e81:	c5 79 6e c8          	vmovd  %eax,%xmm9
    4e85:	c4 43 31 20 0e 01    	vpinsrb $0x1,(%r14),%xmm9,%xmm9
    4e8b:	4c 8b b4 24 b8 02 00 	mov    0x2b8(%rsp),%r14
    4e92:	00 
    4e93:	41 0f b6 03          	movzbl (%r11),%eax
    4e97:	c4 c1 79 61 c1       	vpunpcklwd %xmm9,%xmm0,%xmm0
    4e9c:	c5 79 6e c0          	vmovd  %eax,%xmm8
    4ea0:	41 0f b6 06          	movzbl (%r14),%eax
    4ea4:	c4 43 39 20 19 01    	vpinsrb $0x1,(%r9),%xmm8,%xmm11
    4eaa:	4c 8b 94 24 b0 02 00 	mov    0x2b0(%rsp),%r10
    4eb1:	00 
    4eb2:	4c 8b 9c 24 a8 02 00 	mov    0x2a8(%rsp),%r11
    4eb9:	00 
    4eba:	4c 8b b4 24 98 02 00 	mov    0x298(%rsp),%r14
    4ec1:	00 
    4ec2:	c5 79 6e c0          	vmovd  %eax,%xmm8
    4ec6:	4c 8b 8c 24 a0 02 00 	mov    0x2a0(%rsp),%r9
    4ecd:	00 
    4ece:	41 0f b6 03          	movzbl (%r11),%eax
    4ed2:	4c 8b 9c 24 88 02 00 	mov    0x288(%rsp),%r11
    4ed9:	00 
    4eda:	c4 43 39 20 02 01    	vpinsrb $0x1,(%r10),%xmm8,%xmm8
    4ee0:	4c 8b 94 24 90 02 00 	mov    0x290(%rsp),%r10
    4ee7:	00 
    4ee8:	c5 f9 6e e8          	vmovd  %eax,%xmm5
    4eec:	41 0f b6 06          	movzbl (%r14),%eax
    4ef0:	4c 8b b4 24 78 02 00 	mov    0x278(%rsp),%r14
    4ef7:	00 
    4ef8:	c4 c3 51 20 29 01    	vpinsrb $0x1,(%r9),%xmm5,%xmm5
    4efe:	4c 8b 8c 24 80 02 00 	mov    0x280(%rsp),%r9
    4f05:	00 
    4f06:	c4 41 21 61 c0       	vpunpcklwd %xmm8,%xmm11,%xmm8
    4f0b:	c5 79 6e e0          	vmovd  %eax,%xmm12
    4f0f:	41 0f b6 03          	movzbl (%r11),%eax
    4f13:	c4 43 19 20 22 01    	vpinsrb $0x1,(%r10),%xmm12,%xmm12
    4f19:	c4 c1 79 62 c0       	vpunpckldq %xmm8,%xmm0,%xmm0
    4f1e:	48 8b 9c 24 08 07 00 	mov    0x708(%rsp),%rbx
    4f25:	00 
    4f26:	4c 8b 94 24 70 02 00 	mov    0x270(%rsp),%r10
    4f2d:	00 
    4f2e:	c5 f9 6e f0          	vmovd  %eax,%xmm6
    4f32:	41 0f b6 06          	movzbl (%r14),%eax
    4f36:	c4 43 49 20 11 01    	vpinsrb $0x1,(%r9),%xmm6,%xmm10
    4f3c:	c4 c1 51 61 ec       	vpunpcklwd %xmm12,%xmm5,%xmm5
    4f41:	4c 8b 9c 24 68 02 00 	mov    0x268(%rsp),%r11
    4f48:	00 
    4f49:	4c 8b 8c 24 60 02 00 	mov    0x260(%rsp),%r9
    4f50:	00 
    4f51:	c5 f9 6e f0          	vmovd  %eax,%xmm6
    4f55:	c4 83 49 20 34 3e 01 	vpinsrb $0x1,(%r14,%r15,1),%xmm6,%xmm6
    4f5c:	0f b6 03             	movzbl (%rbx),%eax
    4f5f:	c5 a9 61 f6          	vpunpcklwd %xmm6,%xmm10,%xmm6
    4f63:	c5 d1 62 ee          	vpunpckldq %xmm6,%xmm5,%xmm5
    4f67:	c5 f9 6c c5          	vpunpcklqdq %xmm5,%xmm0,%xmm0
    4f6b:	c5 f9 6e e8          	vmovd  %eax,%xmm5
    4f6f:	41 0f b6 03          	movzbl (%r11),%eax
    4f73:	c4 c3 51 20 2a 01    	vpinsrb $0x1,(%r10),%xmm5,%xmm5
    4f79:	4c 8b 94 24 58 02 00 	mov    0x258(%rsp),%r10
    4f80:	00 
    4f81:	4c 8b 9c 24 50 02 00 	mov    0x250(%rsp),%r11
    4f88:	00 
    4f89:	c4 e3 45 38 f8 01    	vinserti128 $0x1,%xmm0,%ymm7,%ymm7
    4f8f:	c5 79 6e c8          	vmovd  %eax,%xmm9
    4f93:	c4 43 31 20 09 01    	vpinsrb $0x1,(%r9),%xmm9,%xmm9
    4f99:	4c 8b 8c 24 48 02 00 	mov    0x248(%rsp),%r9
    4fa0:	00 
    4fa1:	41 0f b6 02          	movzbl (%r10),%eax
    4fa5:	4c 8b 94 24 40 02 00 	mov    0x240(%rsp),%r10
    4fac:	00 
    4fad:	c4 c1 51 61 e9       	vpunpcklwd %xmm9,%xmm5,%xmm5
    4fb2:	c5 79 6e c0          	vmovd  %eax,%xmm8
    4fb6:	41 0f b6 01          	movzbl (%r9),%eax
    4fba:	c4 43 39 20 1b 01    	vpinsrb $0x1,(%r11),%xmm8,%xmm11
    4fc0:	c5 79 6e c0          	vmovd  %eax,%xmm8
    4fc4:	c4 43 39 20 02 01    	vpinsrb $0x1,(%r10),%xmm8,%xmm8
    4fca:	4c 8b 9c 24 38 02 00 	mov    0x238(%rsp),%r11
    4fd1:	00 
    4fd2:	4c 8b 94 24 28 02 00 	mov    0x228(%rsp),%r10
    4fd9:	00 
    4fda:	4c 8b 8c 24 30 02 00 	mov    0x230(%rsp),%r9
    4fe1:	00 
    4fe2:	41 0f b6 03          	movzbl (%r11),%eax
    4fe6:	4c 8b 9c 24 18 02 00 	mov    0x218(%rsp),%r11
    4fed:	00 
    4fee:	c4 41 21 61 c0       	vpunpcklwd %xmm8,%xmm11,%xmm8
    4ff3:	4c 8b b4 24 20 02 00 	mov    0x220(%rsp),%r14
    4ffa:	00 
    4ffb:	c4 c1 51 62 e8       	vpunpckldq %xmm8,%xmm5,%xmm5
    5000:	c5 f9 6e c0          	vmovd  %eax,%xmm0
    5004:	41 0f b6 02          	movzbl (%r10),%eax
    5008:	4c 8b 94 24 08 02 00 	mov    0x208(%rsp),%r10
    500f:	00 
    5010:	c4 c3 79 20 01 01    	vpinsrb $0x1,(%r9),%xmm0,%xmm0
    5016:	4c 8b 8c 24 10 02 00 	mov    0x210(%rsp),%r9
    501d:	00 
    501e:	c5 79 6e e0          	vmovd  %eax,%xmm12
    5022:	41 0f b6 03          	movzbl (%r11),%eax
    5026:	c4 43 19 20 26 01    	vpinsrb $0x1,(%r14),%xmm12,%xmm12
    502c:	4c 8b b4 24 00 02 00 	mov    0x200(%rsp),%r14
    5033:	00 
    5034:	4c 8b 9c 24 f8 01 00 	mov    0x1f8(%rsp),%r11
    503b:	00 
    503c:	c5 f9 6e f0          	vmovd  %eax,%xmm6
    5040:	41 0f b6 02          	movzbl (%r10),%eax
    5044:	c4 43 49 20 11 01    	vpinsrb $0x1,(%r9),%xmm6,%xmm10
    504a:	c4 c1 79 61 c4       	vpunpcklwd %xmm12,%xmm0,%xmm0
    504f:	4c 8b 94 24 e8 01 00 	mov    0x1e8(%rsp),%r10
    5056:	00 
    5057:	4c 8b 8c 24 f0 01 00 	mov    0x1f0(%rsp),%r9
    505e:	00 
    505f:	c5 f9 6e f0          	vmovd  %eax,%xmm6
    5063:	c4 c3 49 20 36 01    	vpinsrb $0x1,(%r14),%xmm6,%xmm6
    5069:	41 0f b6 03          	movzbl (%r11),%eax
    506d:	4c 8b 9c 24 d8 01 00 	mov    0x1d8(%rsp),%r11
    5074:	00 
    5075:	4c 8b b4 24 e0 01 00 	mov    0x1e0(%rsp),%r14
    507c:	00 
    507d:	c5 a9 61 f6          	vpunpcklwd %xmm6,%xmm10,%xmm6
    5081:	c5 f9 62 c6          	vpunpckldq %xmm6,%xmm0,%xmm0
    5085:	c5 51 6c c8          	vpunpcklqdq %xmm0,%xmm5,%xmm9
    5089:	c5 f9 6e c0          	vmovd  %eax,%xmm0
    508d:	41 0f b6 02          	movzbl (%r10),%eax
    5091:	4c 8b 94 24 c8 01 00 	mov    0x1c8(%rsp),%r10
    5098:	00 
    5099:	c4 c3 79 20 01 01    	vpinsrb $0x1,(%r9),%xmm0,%xmm0
    509f:	4c 8b 8c 24 d0 01 00 	mov    0x1d0(%rsp),%r9
    50a6:	00 
    50a7:	c5 79 6e c0          	vmovd  %eax,%xmm8
    50ab:	41 0f b6 03          	movzbl (%r11),%eax
    50af:	c4 43 39 20 06 01    	vpinsrb $0x1,(%r14),%xmm8,%xmm8
    50b5:	4c 8b b4 24 c0 01 00 	mov    0x1c0(%rsp),%r14
    50bc:	00 
    50bd:	c5 79 6e d8          	vmovd  %eax,%xmm11
    50c1:	41 0f b6 02          	movzbl (%r10),%eax
    50c5:	c4 43 21 20 19 01    	vpinsrb $0x1,(%r9),%xmm11,%xmm11
    50cb:	c4 c1 79 61 c0       	vpunpcklwd %xmm8,%xmm0,%xmm0
    50d0:	c5 f9 6e f0          	vmovd  %eax,%xmm6
    50d4:	c4 c3 49 20 36 01    	vpinsrb $0x1,(%r14),%xmm6,%xmm6
    50da:	4c 8b 9c 24 b8 01 00 	mov    0x1b8(%rsp),%r11
    50e1:	00 
    50e2:	4c 8b 94 24 a8 01 00 	mov    0x1a8(%rsp),%r10
    50e9:	00 
    50ea:	4c 8b 8c 24 b0 01 00 	mov    0x1b0(%rsp),%r9
    50f1:	00 
    50f2:	41 0f b6 03          	movzbl (%r11),%eax
    50f6:	4c 8b 9c 24 98 01 00 	mov    0x198(%rsp),%r11
    50fd:	00 
    50fe:	c5 21 61 c6          	vpunpcklwd %xmm6,%xmm11,%xmm8
    5102:	4c 8b b4 24 a0 01 00 	mov    0x1a0(%rsp),%r14
    5109:	00 
    510a:	48 8b bc 24 00 07 00 	mov    0x700(%rsp),%rdi
    5111:	00 
    5112:	c4 c1 79 62 c0       	vpunpckldq %xmm8,%xmm0,%xmm0
    5117:	c5 f9 6e e8          	vmovd  %eax,%xmm5
    511b:	41 0f b6 02          	movzbl (%r10),%eax
    511f:	4c 8b 94 24 88 01 00 	mov    0x188(%rsp),%r10
    5126:	00 
    5127:	c4 c3 51 20 29 01    	vpinsrb $0x1,(%r9),%xmm5,%xmm5
    512d:	4c 8b 8c 24 90 01 00 	mov    0x190(%rsp),%r9
    5134:	00 
    5135:	c5 79 6e e8          	vmovd  %eax,%xmm13
    5139:	41 0f b6 03          	movzbl (%r11),%eax
    513d:	c4 43 11 20 2e 01    	vpinsrb $0x1,(%r14),%xmm13,%xmm13
    5143:	4c 8b 9c 24 78 01 00 	mov    0x178(%rsp),%r11
    514a:	00 
    514b:	4c 8b b4 24 80 01 00 	mov    0x180(%rsp),%r14
    5152:	00 
    5153:	c5 79 6e d0          	vmovd  %eax,%xmm10
    5157:	41 0f b6 02          	movzbl (%r10),%eax
    515b:	c4 43 29 20 11 01    	vpinsrb $0x1,(%r9),%xmm10,%xmm10
    5161:	c4 c1 51 61 ed       	vpunpcklwd %xmm13,%xmm5,%xmm5
    5166:	4c 8b 8c 24 70 01 00 	mov    0x170(%rsp),%r9
    516d:	00 
    516e:	c5 79 6e e0          	vmovd  %eax,%xmm12
    5172:	c4 03 19 20 24 3a 01 	vpinsrb $0x1,(%r10,%r15,1),%xmm12,%xmm12
    5179:	0f b6 47 01          	movzbl 0x1(%rdi),%eax
    517d:	c4 c1 29 61 f4       	vpunpcklwd %xmm12,%xmm10,%xmm6
    5182:	c5 d1 62 ee          	vpunpckldq %xmm6,%xmm5,%xmm5
    5186:	c5 f9 6e f0          	vmovd  %eax,%xmm6
    518a:	41 0f b6 43 01       	movzbl 0x1(%r11),%eax
    518f:	c4 c3 49 20 76 01 01 	vpinsrb $0x1,0x1(%r14),%xmm6,%xmm6
    5196:	4c 8b b4 24 68 01 00 	mov    0x168(%rsp),%r14
    519d:	00 
    519e:	c5 f9 6c c5          	vpunpcklqdq %xmm5,%xmm0,%xmm0
    51a2:	4c 8b 9c 24 60 01 00 	mov    0x160(%rsp),%r11
    51a9:	00 
    51aa:	c5 79 6e d0          	vmovd  %eax,%xmm10
    51ae:	c4 43 29 20 51 01 01 	vpinsrb $0x1,0x1(%r9),%xmm10,%xmm10
    51b5:	c4 e3 35 38 e8 01    	vinserti128 $0x1,%xmm0,%ymm9,%ymm5
    51bb:	4c 8b 8c 24 58 01 00 	mov    0x158(%rsp),%r9
    51c2:	00 
    51c3:	41 0f b6 46 01       	movzbl 0x1(%r14),%eax
    51c8:	4c 8b b4 24 50 01 00 	mov    0x150(%rsp),%r14
    51cf:	00 
    51d0:	c5 c5 fc fd          	vpaddb %ymm5,%ymm7,%ymm7
    51d4:	c5 f5 fc cf          	vpaddb %ymm7,%ymm1,%ymm1
    51d8:	c4 c1 49 61 f2       	vpunpcklwd %xmm10,%xmm6,%xmm6
    51dd:	c5 79 6e c8          	vmovd  %eax,%xmm9
    51e1:	41 0f b6 41 01       	movzbl 0x1(%r9),%eax
    51e6:	c4 43 31 20 5b 01 01 	vpinsrb $0x1,0x1(%r11),%xmm9,%xmm11
    51ed:	c5 79 6e c8          	vmovd  %eax,%xmm9
    51f1:	c4 43 31 20 4e 01 01 	vpinsrb $0x1,0x1(%r14),%xmm9,%xmm9
    51f8:	4c 8b 9c 24 48 01 00 	mov    0x148(%rsp),%r11
    51ff:	00 
    5200:	4c 8b b4 24 38 01 00 	mov    0x138(%rsp),%r14
    5207:	00 
    5208:	4c 8b 8c 24 40 01 00 	mov    0x140(%rsp),%r9
    520f:	00 
    5210:	41 0f b6 43 01       	movzbl 0x1(%r11),%eax
    5215:	4c 8b 9c 24 28 01 00 	mov    0x128(%rsp),%r11
    521c:	00 
    521d:	c4 41 21 61 c9       	vpunpcklwd %xmm9,%xmm11,%xmm9
    5222:	4c 8b 94 24 30 01 00 	mov    0x130(%rsp),%r10
    5229:	00 
    522a:	c4 c1 49 62 f1       	vpunpckldq %xmm9,%xmm6,%xmm6
    522f:	c5 f9 6e e8          	vmovd  %eax,%xmm5
    5233:	41 0f b6 46 01       	movzbl 0x1(%r14),%eax
    5238:	c4 c3 51 20 69 01 01 	vpinsrb $0x1,0x1(%r9),%xmm5,%xmm5
    523f:	4c 8b b4 24 18 01 00 	mov    0x118(%rsp),%r14
    5246:	00 
    5247:	4c 8b 8c 24 20 01 00 	mov    0x120(%rsp),%r9
    524e:	00 
    524f:	c5 79 6e c0          	vmovd  %eax,%xmm8
    5253:	41 0f b6 43 01       	movzbl 0x1(%r11),%eax
    5258:	c4 43 39 20 42 01 01 	vpinsrb $0x1,0x1(%r10),%xmm8,%xmm8
    525f:	4c 8b 94 24 10 01 00 	mov    0x110(%rsp),%r10
    5266:	00 
    5267:	4c 8b 9c 24 08 01 00 	mov    0x108(%rsp),%r11
    526e:	00 
    526f:	c5 f9 6e c0          	vmovd  %eax,%xmm0
    5273:	41 0f b6 46 01       	movzbl 0x1(%r14),%eax
    5278:	c4 c3 79 20 41 01 01 	vpinsrb $0x1,0x1(%r9),%xmm0,%xmm0
    527f:	c4 c1 51 61 e8       	vpunpcklwd %xmm8,%xmm5,%xmm5
    5284:	4c 8b b4 24 f8 00 00 	mov    0xf8(%rsp),%r14
    528b:	00 
    528c:	4c 8b 8c 24 00 01 00 	mov    0x100(%rsp),%r9
    5293:	00 
    5294:	c5 f9 6e f8          	vmovd  %eax,%xmm7
    5298:	c4 c3 41 20 7a 01 01 	vpinsrb $0x1,0x1(%r10),%xmm7,%xmm7
    529f:	41 0f b6 43 01       	movzbl 0x1(%r11),%eax
    52a4:	4c 8b 9c 24 e8 00 00 	mov    0xe8(%rsp),%r11
    52ab:	00 
    52ac:	4c 8b 94 24 f0 00 00 	mov    0xf0(%rsp),%r10
    52b3:	00 
    52b4:	c5 f9 61 c7          	vpunpcklwd %xmm7,%xmm0,%xmm0
    52b8:	c5 d1 62 c0          	vpunpckldq %xmm0,%xmm5,%xmm0
    52bc:	c5 c9 6c f8          	vpunpcklqdq %xmm0,%xmm6,%xmm7
    52c0:	c5 f9 6e c0          	vmovd  %eax,%xmm0
    52c4:	41 0f b6 46 01       	movzbl 0x1(%r14),%eax
    52c9:	4c 8b b4 24 d8 00 00 	mov    0xd8(%rsp),%r14
    52d0:	00 
    52d1:	c4 c3 79 20 41 01 01 	vpinsrb $0x1,0x1(%r9),%xmm0,%xmm0
    52d8:	4c 8b 8c 24 e0 00 00 	mov    0xe0(%rsp),%r9
    52df:	00 
    52e0:	c5 79 6e c8          	vmovd  %eax,%xmm9
    52e4:	41 0f b6 43 01       	movzbl 0x1(%r11),%eax
    52e9:	c4 43 31 20 4a 01 01 	vpinsrb $0x1,0x1(%r10),%xmm9,%xmm9
    52f0:	4c 8b 94 24 d0 00 00 	mov    0xd0(%rsp),%r10
    52f7:	00 
    52f8:	c5 79 6e c0          	vmovd  %eax,%xmm8
    52fc:	41 0f b6 46 01       	movzbl 0x1(%r14),%eax
    5301:	c4 43 39 20 59 01 01 	vpinsrb $0x1,0x1(%r9),%xmm8,%xmm11
    5308:	c4 c1 79 61 c1       	vpunpcklwd %xmm9,%xmm0,%xmm0
    530d:	c5 79 6e c0          	vmovd  %eax,%xmm8
    5311:	c4 43 39 20 42 01 01 	vpinsrb $0x1,0x1(%r10),%xmm8,%xmm8
    5318:	4c 8b 9c 24 c8 00 00 	mov    0xc8(%rsp),%r11
    531f:	00 
    5320:	4c 8b b4 24 b8 00 00 	mov    0xb8(%rsp),%r14
    5327:	00 
    5328:	4c 8b 8c 24 c0 00 00 	mov    0xc0(%rsp),%r9
    532f:	00 
    5330:	41 0f b6 43 01       	movzbl 0x1(%r11),%eax
    5335:	4c 8b 9c 24 a8 00 00 	mov    0xa8(%rsp),%r11
    533c:	00 
    533d:	c4 41 21 61 c0       	vpunpcklwd %xmm8,%xmm11,%xmm8
    5342:	4c 8b 94 24 b0 00 00 	mov    0xb0(%rsp),%r10
    5349:	00 
    534a:	48 8b 94 24 f8 06 00 	mov    0x6f8(%rsp),%rdx
    5351:	00 
    5352:	c4 c1 79 62 c0       	vpunpckldq %xmm8,%xmm0,%xmm0
    5357:	c5 f9 6e e8          	vmovd  %eax,%xmm5
    535b:	41 0f b6 46 01       	movzbl 0x1(%r14),%eax
    5360:	c4 c3 51 20 69 01 01 	vpinsrb $0x1,0x1(%r9),%xmm5,%xmm5
    5367:	4c 8b b4 24 98 00 00 	mov    0x98(%rsp),%r14
    536e:	00 
    536f:	4c 8b 8c 24 a0 00 00 	mov    0xa0(%rsp),%r9
    5376:	00 
    5377:	c5 79 6e e0          	vmovd  %eax,%xmm12
    537b:	41 0f b6 43 01       	movzbl 0x1(%r11),%eax
    5380:	c4 43 19 20 62 01 01 	vpinsrb $0x1,0x1(%r10),%xmm12,%xmm12
    5387:	4c 8b 9c 24 88 00 00 	mov    0x88(%rsp),%r11
    538e:	00 
    538f:	4c 8b 94 24 90 00 00 	mov    0x90(%rsp),%r10
    5396:	00 
    5397:	c5 f9 6e f0          	vmovd  %eax,%xmm6
    539b:	41 0f b6 46 01       	movzbl 0x1(%r14),%eax
    53a0:	c4 43 49 20 51 01 01 	vpinsrb $0x1,0x1(%r9),%xmm6,%xmm10
    53a7:	c4 c1 51 61 ec       	vpunpcklwd %xmm12,%xmm5,%xmm5
    53ac:	4c 8b 8c 24 80 00 00 	mov    0x80(%rsp),%r9
    53b3:	00 
    53b4:	c5 f9 6e f0          	vmovd  %eax,%xmm6
    53b8:	c4 83 49 20 74 3e 01 	vpinsrb $0x1,0x1(%r14,%r15,1),%xmm6,%xmm6
    53bf:	01 
    53c0:	0f b6 42 01          	movzbl 0x1(%rdx),%eax
    53c4:	c5 a9 61 f6          	vpunpcklwd %xmm6,%xmm10,%xmm6
    53c8:	c5 d1 62 ee          	vpunpckldq %xmm6,%xmm5,%xmm5
    53cc:	c5 f9 6c c5          	vpunpcklqdq %xmm5,%xmm0,%xmm0
    53d0:	c5 f9 6e e8          	vmovd  %eax,%xmm5
    53d4:	41 0f b6 43 01       	movzbl 0x1(%r11),%eax
    53d9:	c4 c3 51 20 6a 01 01 	vpinsrb $0x1,0x1(%r10),%xmm5,%xmm5
    53e0:	4c 8b 54 24 78       	mov    0x78(%rsp),%r10
    53e5:	4c 8b 5c 24 70       	mov    0x70(%rsp),%r11
    53ea:	c4 e3 45 38 f8 01    	vinserti128 $0x1,%xmm0,%ymm7,%ymm7
    53f0:	c5 79 6e c8          	vmovd  %eax,%xmm9
    53f4:	c4 43 31 20 49 01 01 	vpinsrb $0x1,0x1(%r9),%xmm9,%xmm9
    53fb:	4c 8b 4c 24 68       	mov    0x68(%rsp),%r9
    5400:	41 0f b6 42 01       	movzbl 0x1(%r10),%eax
    5405:	4c 8b 54 24 60       	mov    0x60(%rsp),%r10
    540a:	c4 c1 51 61 e9       	vpunpcklwd %xmm9,%xmm5,%xmm5
    540f:	c5 79 6e c0          	vmovd  %eax,%xmm8
    5413:	41 0f b6 41 01       	movzbl 0x1(%r9),%eax
    5418:	c4 43 39 20 5b 01 01 	vpinsrb $0x1,0x1(%r11),%xmm8,%xmm11
    541f:	4c 8b 5c 24 58       	mov    0x58(%rsp),%r11
    5424:	c5 79 6e c0          	vmovd  %eax,%xmm8
    5428:	c4 43 39 20 42 01 01 	vpinsrb $0x1,0x1(%r10),%xmm8,%xmm8
    542f:	41 0f b6 43 01       	movzbl 0x1(%r11),%eax
    5434:	4c 8b 4c 24 50       	mov    0x50(%rsp),%r9
    5439:	4c 8b 54 24 48       	mov    0x48(%rsp),%r10
    543e:	4c 8b 5c 24 40       	mov    0x40(%rsp),%r11
    5443:	c4 41 21 61 c0       	vpunpcklwd %xmm8,%xmm11,%xmm8
    5448:	c5 f9 6e c0          	vmovd  %eax,%xmm0
    544c:	c4 c3 79 20 41 01 01 	vpinsrb $0x1,0x1(%r9),%xmm0,%xmm0
    5453:	4c 8b 4c 24 38       	mov    0x38(%rsp),%r9
    5458:	c4 c1 51 62 e8       	vpunpckldq %xmm8,%xmm5,%xmm5
    545d:	41 0f b6 42 01       	movzbl 0x1(%r10),%eax
    5462:	4c 8b 54 24 28       	mov    0x28(%rsp),%r10
    5467:	4c 8b 74 24 30       	mov    0x30(%rsp),%r14
    546c:	c5 79 6e e0          	vmovd  %eax,%xmm12
    5470:	41 0f b6 41 01       	movzbl 0x1(%r9),%eax
    5475:	c4 43 19 20 63 01 01 	vpinsrb $0x1,0x1(%r11),%xmm12,%xmm12
    547c:	4c 8b 5c 24 20       	mov    0x20(%rsp),%r11
    5481:	4c 8b 4c 24 18       	mov    0x18(%rsp),%r9
    5486:	c5 f9 6e f0          	vmovd  %eax,%xmm6
    548a:	41 0f b6 42 01       	movzbl 0x1(%r10),%eax
    548f:	c4 43 49 20 56 01 01 	vpinsrb $0x1,0x1(%r14),%xmm6,%xmm10
    5496:	c4 c1 79 61 c4       	vpunpcklwd %xmm12,%xmm0,%xmm0
    549b:	4c 8b 54 24 08       	mov    0x8(%rsp),%r10
    54a0:	4c 8b 74 24 10       	mov    0x10(%rsp),%r14
    54a5:	c5 f9 6e f0          	vmovd  %eax,%xmm6
    54a9:	c4 c3 49 20 73 01 01 	vpinsrb $0x1,0x1(%r11),%xmm6,%xmm6
    54b0:	41 0f b6 41 01       	movzbl 0x1(%r9),%eax
    54b5:	4c 8b 4c 24 f8       	mov    -0x8(%rsp),%r9
    54ba:	4c 8b 1c 24          	mov    (%rsp),%r11
    54be:	c5 a9 61 f6          	vpunpcklwd %xmm6,%xmm10,%xmm6
    54c2:	c5 f9 62 c6          	vpunpckldq %xmm6,%xmm0,%xmm0
    54c6:	c5 51 6c c8          	vpunpcklqdq %xmm0,%xmm5,%xmm9
    54ca:	c5 f9 6e c0          	vmovd  %eax,%xmm0
    54ce:	41 0f b6 42 01       	movzbl 0x1(%r10),%eax
    54d3:	4c 8b 54 24 e8       	mov    -0x18(%rsp),%r10
    54d8:	c4 c3 79 20 46 01 01 	vpinsrb $0x1,0x1(%r14),%xmm0,%xmm0
    54df:	4c 8b 74 24 f0       	mov    -0x10(%rsp),%r14
    54e4:	c5 79 6e c0          	vmovd  %eax,%xmm8
    54e8:	41 0f b6 41 01       	movzbl 0x1(%r9),%eax
    54ed:	c4 43 39 20 43 01 01 	vpinsrb $0x1,0x1(%r11),%xmm8,%xmm8
    54f4:	4c 8b 4c 24 d8       	mov    -0x28(%rsp),%r9
    54f9:	4c 8b 5c 24 e0       	mov    -0x20(%rsp),%r11
    54fe:	c5 79 6e d8          	vmovd  %eax,%xmm11
    5502:	41 0f b6 42 01       	movzbl 0x1(%r10),%eax
    5507:	c4 43 21 20 5e 01 01 	vpinsrb $0x1,0x1(%r14),%xmm11,%xmm11
    550e:	c4 c1 79 61 c0       	vpunpcklwd %xmm8,%xmm0,%xmm0
    5513:	c5 f9 6e f0          	vmovd  %eax,%xmm6
    5517:	c4 c3 49 20 73 01 01 	vpinsrb $0x1,0x1(%r11),%xmm6,%xmm6
    551e:	41 0f b6 41 01       	movzbl 0x1(%r9),%eax
    5523:	4c 8b 54 24 c8       	mov    -0x38(%rsp),%r10
    5528:	4c 8b 4c 24 b8       	mov    -0x48(%rsp),%r9
    552d:	c5 f9 6e e8          	vmovd  %eax,%xmm5
    5531:	4c 8b 74 24 d0       	mov    -0x30(%rsp),%r14
    5536:	4c 8b 5c 24 c0       	mov    -0x40(%rsp),%r11
    553b:	c5 21 61 c6          	vpunpcklwd %xmm6,%xmm11,%xmm8
    553f:	41 0f b6 42 01       	movzbl 0x1(%r10),%eax
    5544:	4c 8b 54 24 a8       	mov    -0x58(%rsp),%r10
    5549:	c4 c1 79 62 c0       	vpunpckldq %xmm8,%xmm0,%xmm0
    554e:	c4 c3 51 20 6e 01 01 	vpinsrb $0x1,0x1(%r14),%xmm5,%xmm5
    5555:	4c 8b 74 24 b0       	mov    -0x50(%rsp),%r14
    555a:	c5 79 6e e8          	vmovd  %eax,%xmm13
    555e:	41 0f b6 41 01       	movzbl 0x1(%r9),%eax
    5563:	c4 43 11 20 6b 01 01 	vpinsrb $0x1,0x1(%r11),%xmm13,%xmm13
    556a:	c5 79 6e d0          	vmovd  %eax,%xmm10
    556e:	41 0f b6 42 01       	movzbl 0x1(%r10),%eax
    5573:	c4 43 29 20 56 01 01 	vpinsrb $0x1,0x1(%r14),%xmm10,%xmm10
    557a:	c4 c1 51 61 ed       	vpunpcklwd %xmm13,%xmm5,%xmm5
    557f:	c5 79 6e e0          	vmovd  %eax,%xmm12
    5583:	48 8b 84 24 f0 06 00 	mov    0x6f0(%rsp),%rax
    558a:	00 
    558b:	c4 03 19 20 64 3a 01 	vpinsrb $0x1,0x1(%r10,%r15,1),%xmm12,%xmm12
    5592:	01 
    5593:	4e 8d 34 38          	lea    (%rax,%r15,1),%r14
    5597:	c4 c1 29 61 f4       	vpunpcklwd %xmm12,%xmm10,%xmm6
    559c:	4f 8d 2c 3e          	lea    (%r14,%r15,1),%r13
    55a0:	c5 d1 62 ee          	vpunpckldq %xmm6,%xmm5,%xmm5
    55a4:	4f 8d 64 3d 00       	lea    0x0(%r13,%r15,1),%r12
    55a9:	c5 f9 6c c5          	vpunpcklqdq %xmm5,%xmm0,%xmm0
    55ad:	4b 8d 1c 3c          	lea    (%r12,%r15,1),%rbx
    55b1:	c4 e3 35 38 e8 01    	vinserti128 $0x1,%xmm0,%ymm9,%ymm5
    55b7:	4e 8d 1c 3b          	lea    (%rbx,%r15,1),%r11
    55bb:	c5 c5 fc fd          	vpaddb %ymm5,%ymm7,%ymm7
    55bf:	4f 8d 14 3b          	lea    (%r11,%r15,1),%r10
    55c3:	c5 f5 fc c7          	vpaddb %ymm7,%ymm1,%ymm0
    55c7:	4b 8d 34 3a          	lea    (%r10,%r15,1),%rsi
    55cb:	c5 fd 74 f4          	vpcmpeqb %ymm4,%ymm0,%ymm6
    55cf:	4e 8d 04 3e          	lea    (%rsi,%r15,1),%r8
    55d3:	48 89 b4 24 d0 06 00 	mov    %rsi,0x6d0(%rsp)
    55da:	00 
    55db:	c5 fd 74 c3          	vpcmpeqb %ymm3,%ymm0,%ymm0
    55df:	4b 8d 3c 38          	lea    (%r8,%r15,1),%rdi
    55e3:	4a 8d 34 3f          	lea    (%rdi,%r15,1),%rsi
    55e7:	c5 cd db f2          	vpand  %ymm2,%ymm6,%ymm6
    55eb:	4a 8d 14 3e          	lea    (%rsi,%r15,1),%rdx
    55ef:	c5 fd db fa          	vpand  %ymm2,%ymm0,%ymm7
    55f3:	48 89 94 24 c8 06 00 	mov    %rdx,0x6c8(%rsp)
    55fa:	00 
    55fb:	4c 01 fa             	add    %r15,%rdx
    55fe:	4e 8d 0c 3a          	lea    (%rdx,%r15,1),%r9
    5602:	4c 89 8c 24 c0 06 00 	mov    %r9,0x6c0(%rsp)
    5609:	00 
    560a:	4d 01 f9             	add    %r15,%r9
    560d:	4c 89 8c 24 b8 06 00 	mov    %r9,0x6b8(%rsp)
    5614:	00 
    5615:	4d 01 f9             	add    %r15,%r9
    5618:	4c 89 8c 24 b0 06 00 	mov    %r9,0x6b0(%rsp)
    561f:	00 
    5620:	4d 01 f9             	add    %r15,%r9
    5623:	4c 89 8c 24 a8 06 00 	mov    %r9,0x6a8(%rsp)
    562a:	00 
    562b:	4d 01 f9             	add    %r15,%r9
    562e:	4c 89 8c 24 a0 06 00 	mov    %r9,0x6a0(%rsp)
    5635:	00 
    5636:	4d 01 f9             	add    %r15,%r9
    5639:	4c 89 8c 24 98 06 00 	mov    %r9,0x698(%rsp)
    5640:	00 
    5641:	4d 01 f9             	add    %r15,%r9
    5644:	4c 89 8c 24 90 06 00 	mov    %r9,0x690(%rsp)
    564b:	00 
    564c:	4d 01 f9             	add    %r15,%r9
    564f:	4c 89 8c 24 88 06 00 	mov    %r9,0x688(%rsp)
    5656:	00 
    5657:	4d 01 f9             	add    %r15,%r9
    565a:	4c 89 8c 24 80 06 00 	mov    %r9,0x680(%rsp)
    5661:	00 
    5662:	4d 01 f9             	add    %r15,%r9
    5665:	4c 89 8c 24 78 06 00 	mov    %r9,0x678(%rsp)
    566c:	00 
    566d:	4d 01 f9             	add    %r15,%r9
    5670:	4c 89 8c 24 70 06 00 	mov    %r9,0x670(%rsp)
    5677:	00 
    5678:	4d 01 f9             	add    %r15,%r9
    567b:	4c 89 8c 24 68 06 00 	mov    %r9,0x668(%rsp)
    5682:	00 
    5683:	4d 01 f9             	add    %r15,%r9
    5686:	4c 89 8c 24 60 06 00 	mov    %r9,0x660(%rsp)
    568d:	00 
    568e:	4d 01 f9             	add    %r15,%r9
    5691:	4c 89 8c 24 58 06 00 	mov    %r9,0x658(%rsp)
    5698:	00 
    5699:	4d 01 f9             	add    %r15,%r9
    569c:	4c 89 8c 24 50 06 00 	mov    %r9,0x650(%rsp)
    56a3:	00 
    56a4:	4d 01 f9             	add    %r15,%r9
    56a7:	4c 89 8c 24 48 06 00 	mov    %r9,0x648(%rsp)
    56ae:	00 
    56af:	0f b6 00             	movzbl (%rax),%eax
    56b2:	4d 01 f9             	add    %r15,%r9
    56b5:	4c 89 8c 24 40 06 00 	mov    %r9,0x640(%rsp)
    56bc:	00 
    56bd:	4d 01 f9             	add    %r15,%r9
    56c0:	c5 f9 6e e8          	vmovd  %eax,%xmm5
    56c4:	41 0f b6 45 00       	movzbl 0x0(%r13),%eax
    56c9:	c4 c3 51 20 2e 01    	vpinsrb $0x1,(%r14),%xmm5,%xmm5
    56cf:	4c 89 8c 24 38 06 00 	mov    %r9,0x638(%rsp)
    56d6:	00 
    56d7:	4c 8b 8c 24 c0 06 00 	mov    0x6c0(%rsp),%r9
    56de:	00 
    56df:	c5 79 6e c8          	vmovd  %eax,%xmm9
    56e3:	0f b6 03             	movzbl (%rbx),%eax
    56e6:	48 8b 9c 24 d0 06 00 	mov    0x6d0(%rsp),%rbx
    56ed:	00 
    56ee:	c4 43 31 20 0c 24 01 	vpinsrb $0x1,(%r12),%xmm9,%xmm9
    56f5:	c5 79 6e d8          	vmovd  %eax,%xmm11
    56f9:	41 0f b6 02          	movzbl (%r10),%eax
    56fd:	c4 43 21 20 1b 01    	vpinsrb $0x1,(%r11),%xmm11,%xmm11
    5703:	4c 8b 9c 24 c8 06 00 	mov    0x6c8(%rsp),%r11
    570a:	00 
    570b:	c4 c1 51 61 e9       	vpunpcklwd %xmm9,%xmm5,%xmm5
    5710:	c5 f9 6e c0          	vmovd  %eax,%xmm0
    5714:	41 0f b6 00          	movzbl (%r8),%eax
    5718:	c4 e3 79 20 03 01    	vpinsrb $0x1,(%rbx),%xmm0,%xmm0
    571e:	c5 f9 6e c8          	vmovd  %eax,%xmm1
    5722:	0f b6 06             	movzbl (%rsi),%eax
    5725:	c4 e3 71 20 0f 01    	vpinsrb $0x1,(%rdi),%xmm1,%xmm1
    572b:	c5 21 61 c8          	vpunpcklwd %xmm0,%xmm11,%xmm9
    572f:	c4 c1 51 62 e9       	vpunpckldq %xmm9,%xmm5,%xmm5
    5734:	c5 79 6e e0          	vmovd  %eax,%xmm12
    5738:	0f b6 02             	movzbl (%rdx),%eax
    573b:	c4 43 19 20 23 01    	vpinsrb $0x1,(%r11),%xmm12,%xmm12
    5741:	c5 79 6e d0          	vmovd  %eax,%xmm10
    5745:	c4 43 29 20 11 01    	vpinsrb $0x1,(%r9),%xmm10,%xmm10
    574b:	c4 c1 71 61 cc       	vpunpcklwd %xmm12,%xmm1,%xmm1
    5750:	4c 8b 8c 24 b8 06 00 	mov    0x6b8(%rsp),%r9
    5757:	00 
    5758:	41 0f b6 01          	movzbl (%r9),%eax
    575c:	4c 8b 8c 24 b0 06 00 	mov    0x6b0(%rsp),%r9
    5763:	00 
    5764:	c5 79 6e c0          	vmovd  %eax,%xmm8
    5768:	c4 43 39 20 01 01    	vpinsrb $0x1,(%r9),%xmm8,%xmm8
    576e:	4c 8b 8c 24 a8 06 00 	mov    0x6a8(%rsp),%r9
    5775:	00 
    5776:	c4 c1 29 61 c0       	vpunpcklwd %xmm8,%xmm10,%xmm0
    577b:	41 0f b6 01          	movzbl (%r9),%eax
    577f:	4c 8b 8c 24 a0 06 00 	mov    0x6a0(%rsp),%r9
    5786:	00 
    5787:	c5 f1 62 c8          	vpunpckldq %xmm0,%xmm1,%xmm1
    578b:	c5 d1 6c c1          	vpunpcklqdq %xmm1,%xmm5,%xmm0
    578f:	c5 f9 6e c8          	vmovd  %eax,%xmm1
    5793:	c4 c3 71 20 09 01    	vpinsrb $0x1,(%r9),%xmm1,%xmm1
    5799:	4c 8b 8c 24 98 06 00 	mov    0x698(%rsp),%r9
    57a0:	00 
    57a1:	41 0f b6 01          	movzbl (%r9),%eax
    57a5:	4c 8b 8c 24 90 06 00 	mov    0x690(%rsp),%r9
    57ac:	00 
    57ad:	c5 79 6e c8          	vmovd  %eax,%xmm9
    57b1:	c4 43 31 20 09 01    	vpinsrb $0x1,(%r9),%xmm9,%xmm9
    57b7:	4c 8b 8c 24 88 06 00 	mov    0x688(%rsp),%r9
    57be:	00 
    57bf:	41 0f b6 01          	movzbl (%r9),%eax
    57c3:	4c 8b 8c 24 80 06 00 	mov    0x680(%rsp),%r9
    57ca:	00 
    57cb:	c4 c1 71 61 c9       	vpunpcklwd %xmm9,%xmm1,%xmm1
    57d0:	4c 8b b4 24 38 06 00 	mov    0x638(%rsp),%r14
    57d7:	00 
    57d8:	48 8b 9c 24 d8 06 00 	mov    0x6d8(%rsp),%rbx
    57df:	00 
    57e0:	c5 79 6e d8          	vmovd  %eax,%xmm11
    57e4:	c4 43 21 20 19 01    	vpinsrb $0x1,(%r9),%xmm11,%xmm11
    57ea:	4c 8b 8c 24 78 06 00 	mov    0x678(%rsp),%r9
    57f1:	00 
    57f2:	4a 8d 14 7b          	lea    (%rbx,%r15,2),%rdx
    57f6:	41 0f b6 01          	movzbl (%r9),%eax
    57fa:	4c 8b 8c 24 70 06 00 	mov    0x670(%rsp),%r9
    5801:	00 
    5802:	c5 79 6e c0          	vmovd  %eax,%xmm8
    5806:	c4 43 39 20 01 01    	vpinsrb $0x1,(%r9),%xmm8,%xmm8
    580c:	4c 8b 8c 24 68 06 00 	mov    0x668(%rsp),%r9
    5813:	00 
    5814:	41 0f b6 01          	movzbl (%r9),%eax
    5818:	4c 8b 8c 24 60 06 00 	mov    0x660(%rsp),%r9
    581f:	00 
    5820:	c4 41 21 61 c8       	vpunpcklwd %xmm8,%xmm11,%xmm9
    5825:	c4 c1 71 62 c9       	vpunpckldq %xmm9,%xmm1,%xmm1
    582a:	c5 f9 6e e8          	vmovd  %eax,%xmm5
    582e:	c4 c3 51 20 29 01    	vpinsrb $0x1,(%r9),%xmm5,%xmm5
    5834:	4c 8b 8c 24 58 06 00 	mov    0x658(%rsp),%r9
    583b:	00 
    583c:	41 0f b6 01          	movzbl (%r9),%eax
    5840:	4c 8b 8c 24 50 06 00 	mov    0x650(%rsp),%r9
    5847:	00 
    5848:	c5 79 6e e8          	vmovd  %eax,%xmm13
    584c:	c4 43 11 20 29 01    	vpinsrb $0x1,(%r9),%xmm13,%xmm13
    5852:	4c 8b 8c 24 48 06 00 	mov    0x648(%rsp),%r9
    5859:	00 
    585a:	41 0f b6 01          	movzbl (%r9),%eax
    585e:	4c 8b 8c 24 40 06 00 	mov    0x640(%rsp),%r9
    5865:	00 
    5866:	c4 c1 51 61 ed       	vpunpcklwd %xmm13,%xmm5,%xmm5
    586b:	c5 79 6e d0          	vmovd  %eax,%xmm10
    586f:	41 0f b6 06          	movzbl (%r14),%eax
    5873:	c4 43 29 20 11 01    	vpinsrb $0x1,(%r9),%xmm10,%xmm10
    5879:	c5 79 6e e0          	vmovd  %eax,%xmm12
    587d:	c4 03 19 20 24 3e 01 	vpinsrb $0x1,(%r14,%r15,1),%xmm12,%xmm12
    5884:	4a 8d 04 7a          	lea    (%rdx,%r15,2),%rax
    5888:	c4 41 29 61 c4       	vpunpcklwd %xmm12,%xmm10,%xmm8
    588d:	c4 c1 51 62 e8       	vpunpckldq %xmm8,%xmm5,%xmm5
    5892:	c5 f1 6c cd          	vpunpcklqdq %xmm5,%xmm1,%xmm1
    5896:	c4 e3 7d 38 c1 01    	vinserti128 $0x1,%xmm1,%ymm0,%ymm0
    589c:	c5 fd db c7          	vpand  %ymm7,%ymm0,%ymm0
    58a0:	c5 fd eb c6          	vpor   %ymm6,%ymm0,%ymm0
    58a4:	c4 e3 79 14 03 00    	vpextrb $0x0,%xmm0,(%rbx)
    58aa:	c4 a3 79 14 04 3b 01 	vpextrb $0x1,%xmm0,(%rbx,%r15,1)
    58b1:	c4 a3 79 14 04 7b 02 	vpextrb $0x2,%xmm0,(%rbx,%r15,2)
    58b8:	48 01 cb             	add    %rcx,%rbx
    58bb:	c4 a3 79 14 04 3a 03 	vpextrb $0x3,%xmm0,(%rdx,%r15,1)
    58c2:	c4 a3 79 14 04 7a 04 	vpextrb $0x4,%xmm0,(%rdx,%r15,2)
    58c9:	4a 8d 14 78          	lea    (%rax,%r15,2),%rdx
    58cd:	c4 a3 79 14 04 38 05 	vpextrb $0x5,%xmm0,(%rax,%r15,1)
    58d4:	c4 a3 79 14 04 78 06 	vpextrb $0x6,%xmm0,(%rax,%r15,2)
    58db:	4a 8d 04 7a          	lea    (%rdx,%r15,2),%rax
    58df:	c4 a3 79 14 04 3a 07 	vpextrb $0x7,%xmm0,(%rdx,%r15,1)
    58e6:	c4 a3 79 14 04 7a 08 	vpextrb $0x8,%xmm0,(%rdx,%r15,2)
    58ed:	4a 8d 14 78          	lea    (%rax,%r15,2),%rdx
    58f1:	c4 a3 79 14 04 38 09 	vpextrb $0x9,%xmm0,(%rax,%r15,1)
    58f8:	c4 a3 79 14 04 78 0a 	vpextrb $0xa,%xmm0,(%rax,%r15,2)
    58ff:	48 01 8c 24 80 07 00 	add    %rcx,0x780(%rsp)
    5906:	00 
    5907:	4a 8d 04 7a          	lea    (%rdx,%r15,2),%rax
    590b:	c4 a3 79 14 04 3a 0b 	vpextrb $0xb,%xmm0,(%rdx,%r15,1)
    5912:	c4 a3 79 14 04 7a 0c 	vpextrb $0xc,%xmm0,(%rdx,%r15,2)
    5919:	48 01 8c 24 78 07 00 	add    %rcx,0x778(%rsp)
    5920:	00 
    5921:	4a 8d 14 78          	lea    (%rax,%r15,2),%rdx
    5925:	c4 a3 79 14 04 38 0d 	vpextrb $0xd,%xmm0,(%rax,%r15,1)
    592c:	c4 a3 79 14 04 78 0e 	vpextrb $0xe,%xmm0,(%rax,%r15,2)
    5933:	48 01 8c 24 70 07 00 	add    %rcx,0x770(%rsp)
    593a:	00 
    593b:	c4 a3 79 14 04 3a 0f 	vpextrb $0xf,%xmm0,(%rdx,%r15,1)
    5942:	4a 8d 04 7a          	lea    (%rdx,%r15,2),%rax
    5946:	c4 e3 7d 39 c0 01    	vextracti128 $0x1,%ymm0,%xmm0
    594c:	48 01 8c 24 68 07 00 	add    %rcx,0x768(%rsp)
    5953:	00 
    5954:	c4 a3 79 14 04 7a 00 	vpextrb $0x0,%xmm0,(%rdx,%r15,2)
    595b:	4a 8d 14 78          	lea    (%rax,%r15,2),%rdx
    595f:	c4 a3 79 14 04 38 01 	vpextrb $0x1,%xmm0,(%rax,%r15,1)
    5966:	c4 a3 79 14 04 78 02 	vpextrb $0x2,%xmm0,(%rax,%r15,2)
    596d:	4a 8d 04 7a          	lea    (%rdx,%r15,2),%rax
    5971:	c4 a3 79 14 04 3a 03 	vpextrb $0x3,%xmm0,(%rdx,%r15,1)
    5978:	c4 a3 79 14 04 7a 04 	vpextrb $0x4,%xmm0,(%rdx,%r15,2)
    597f:	48 01 8c 24 60 07 00 	add    %rcx,0x760(%rsp)
    5986:	00 
    5987:	4a 8d 14 78          	lea    (%rax,%r15,2),%rdx
    598b:	c4 a3 79 14 04 38 05 	vpextrb $0x5,%xmm0,(%rax,%r15,1)
    5992:	c4 a3 79 14 04 78 06 	vpextrb $0x6,%xmm0,(%rax,%r15,2)
    5999:	4a 8d 04 7a          	lea    (%rdx,%r15,2),%rax
    599d:	c4 a3 79 14 04 3a 07 	vpextrb $0x7,%xmm0,(%rdx,%r15,1)
    59a4:	c4 a3 79 14 04 7a 08 	vpextrb $0x8,%xmm0,(%rdx,%r15,2)
    59ab:	4a 8d 14 78          	lea    (%rax,%r15,2),%rdx
    59af:	c4 a3 79 14 04 38 09 	vpextrb $0x9,%xmm0,(%rax,%r15,1)
    59b6:	c4 a3 79 14 04 78 0a 	vpextrb $0xa,%xmm0,(%rax,%r15,2)
    59bd:	4a 8d 04 7a          	lea    (%rdx,%r15,2),%rax
    59c1:	c4 a3 79 14 04 3a 0b 	vpextrb $0xb,%xmm0,(%rdx,%r15,1)
    59c8:	c4 a3 79 14 04 7a 0c 	vpextrb $0xc,%xmm0,(%rdx,%r15,2)
    59cf:	4a 8d 14 78          	lea    (%rax,%r15,2),%rdx
    59d3:	c4 a3 79 14 04 38 0d 	vpextrb $0xd,%xmm0,(%rax,%r15,1)
    59da:	c4 a3 79 14 04 78 0e 	vpextrb $0xe,%xmm0,(%rax,%r15,2)
    59e1:	c4 a3 79 14 04 3a 0f 	vpextrb $0xf,%xmm0,(%rdx,%r15,1)
    59e8:	48 01 8c 24 58 07 00 	add    %rcx,0x758(%rsp)
    59ef:	00 
    59f0:	83 84 24 e8 06 00 00 	addl   $0x1,0x6e8(%rsp)
    59f7:	01 
    59f8:	8b 84 24 e8 06 00 00 	mov    0x6e8(%rsp),%eax
    59ff:	48 01 8c 24 50 07 00 	add    %rcx,0x750(%rsp)
    5a06:	00 
    5a07:	48 01 8c 24 48 07 00 	add    %rcx,0x748(%rsp)
    5a0e:	00 
    5a0f:	48 01 8c 24 40 07 00 	add    %rcx,0x740(%rsp)
    5a16:	00 
    5a17:	48 01 8c 24 38 07 00 	add    %rcx,0x738(%rsp)
    5a1e:	00 
    5a1f:	48 01 8c 24 30 07 00 	add    %rcx,0x730(%rsp)
    5a26:	00 
    5a27:	48 01 8c 24 28 07 00 	add    %rcx,0x728(%rsp)
    5a2e:	00 
    5a2f:	48 01 8c 24 20 07 00 	add    %rcx,0x720(%rsp)
    5a36:	00 
    5a37:	48 01 8c 24 18 07 00 	add    %rcx,0x718(%rsp)
    5a3e:	00 
    5a3f:	48 01 8c 24 10 07 00 	add    %rcx,0x710(%rsp)
    5a46:	00 
    5a47:	48 01 8c 24 08 07 00 	add    %rcx,0x708(%rsp)
    5a4e:	00 
    5a4f:	48 01 8c 24 00 07 00 	add    %rcx,0x700(%rsp)
    5a56:	00 
    5a57:	48 01 8c 24 f8 06 00 	add    %rcx,0x6f8(%rsp)
    5a5e:	00 
    5a5f:	48 01 8c 24 f0 06 00 	add    %rcx,0x6f0(%rsp)
    5a66:	00 
    5a67:	48 89 9c 24 d8 06 00 	mov    %rbx,0x6d8(%rsp)
    5a6e:	00 
    5a6f:	39 44 24 a0          	cmp    %eax,-0x60(%rsp)
    5a73:	0f 87 cf c0 ff ff    	ja     1b48 <calculate_left_right+0x3c8>
    5a79:	8b 4c 24 9c          	mov    -0x64(%rsp),%ecx
    5a7d:	48 8b 5c 24 90       	mov    -0x70(%rsp),%rbx
    5a82:	4c 8b 54 24 88       	mov    -0x78(%rsp),%r10
    5a87:	89 ca                	mov    %ecx,%edx
    5a89:	83 e2 e0             	and    $0xffffffe0,%edx
    5a8c:	8d 42 01             	lea    0x1(%rdx),%eax
    5a8f:	39 d1                	cmp    %edx,%ecx
    5a91:	0f 84 f7 18 00 00    	je     738e <calculate_left_right+0x5c0e>
    5a97:	c5 f8 77             	vzeroupper 
    5a9a:	8b 8c 24 e0 06 00 00 	mov    0x6e0(%rsp),%ecx
    5aa1:	29 d1                	sub    %edx,%ecx
    5aa3:	8d 71 ff             	lea    -0x1(%rcx),%esi
    5aa6:	83 e9 02             	sub    $0x2,%ecx
    5aa9:	89 b4 24 78 04 00 00 	mov    %esi,0x478(%rsp)
    5ab0:	83 f9 0e             	cmp    $0xe,%ecx
    5ab3:	0f 86 f1 17 00 00    	jbe    72aa <calculate_left_right+0x5b2a>
    5ab9:	44 8d 42 01          	lea    0x1(%rdx),%r8d
    5abd:	4d 0f af c7          	imul   %r15,%r8
    5ac1:	4c 89 c2             	mov    %r8,%rdx
    5ac4:	4b 8d 7c 02 fe       	lea    -0x2(%r10,%r8,1),%rdi
    5ac9:	4f 8d 64 02 ff       	lea    -0x1(%r10,%r8,1),%r12
    5ace:	4c 29 fa             	sub    %r15,%rdx
    5ad1:	4c 89 a4 24 d8 05 00 	mov    %r12,0x5d8(%rsp)
    5ad8:	00 
    5ad9:	4e 8d 0c 03          	lea    (%rbx,%r8,1),%r9
    5add:	49 8d 0c 12          	lea    (%r10,%rdx,1),%rcx
    5ae1:	48 89 bc 24 80 07 00 	mov    %rdi,0x780(%rsp)
    5ae8:	00 
    5ae9:	48 89 8c 24 c0 06 00 	mov    %rcx,0x6c0(%rsp)
    5af0:	00 
    5af1:	4a 8d 0c 7a          	lea    (%rdx,%r15,2),%rcx
    5af5:	49 8d 34 0f          	lea    (%r15,%rcx,1),%rsi
    5af9:	49 8d 54 0a fe       	lea    -0x2(%r10,%rcx,1),%rdx
    5afe:	4d 8d 74 32 fe       	lea    -0x2(%r10,%rsi,1),%r14
    5b03:	4d 8d 5c 32 ff       	lea    -0x1(%r10,%rsi,1),%r11
    5b08:	48 8d 71 ff          	lea    -0x1(%rcx),%rsi
    5b0c:	4c 89 9c 24 80 05 00 	mov    %r11,0x580(%rsp)
    5b13:	00 
    5b14:	4a 8d 0c 3f          	lea    (%rdi,%r15,1),%rcx
    5b18:	4d 8d 1c 32          	lea    (%r10,%rsi,1),%r11
    5b1c:	4c 8d 2c 33          	lea    (%rbx,%rsi,1),%r13
    5b20:	4c 89 b4 24 50 06 00 	mov    %r14,0x650(%rsp)
    5b27:	00 
    5b28:	4c 89 9c 24 78 05 00 	mov    %r11,0x578(%rsp)
    5b2f:	00 
    5b30:	4e 8d 1c 39          	lea    (%rcx,%r15,1),%r11
    5b34:	4f 8d 34 3b          	lea    (%r11,%r15,1),%r14
    5b38:	4c 89 ac 24 80 04 00 	mov    %r13,0x480(%rsp)
    5b3f:	00 
    5b40:	4f 8d 2c 3e          	lea    (%r14,%r15,1),%r13
    5b44:	48 89 b4 24 c0 04 00 	mov    %rsi,0x4c0(%rsp)
    5b4b:	00 
    5b4c:	4f 8d 64 3d 00       	lea    0x0(%r13,%r15,1),%r12
    5b51:	48 89 8c 24 78 07 00 	mov    %rcx,0x778(%rsp)
    5b58:	00 
    5b59:	4b 8d 34 3c          	lea    (%r12,%r15,1),%rsi
    5b5d:	4c 89 9c 24 70 07 00 	mov    %r11,0x770(%rsp)
    5b64:	00 
    5b65:	4a 8d 0c 3e          	lea    (%rsi,%r15,1),%rcx
    5b69:	48 89 b4 24 50 07 00 	mov    %rsi,0x750(%rsp)
    5b70:	00 
    5b71:	4b 8d 34 02          	lea    (%r10,%r8,1),%rsi
    5b75:	4e 8d 1c 39          	lea    (%rcx,%r15,1),%r11
    5b79:	4c 89 b4 24 68 07 00 	mov    %r14,0x768(%rsp)
    5b80:	00 
    5b81:	4c 89 9c 24 40 07 00 	mov    %r11,0x740(%rsp)
    5b88:	00 
    5b89:	4f 8d 34 3b          	lea    (%r11,%r15,1),%r14
    5b8d:	4e 8d 1c 3e          	lea    (%rsi,%r15,1),%r11
    5b91:	48 89 b4 24 b8 06 00 	mov    %rsi,0x6b8(%rsp)
    5b98:	00 
    5b99:	4b 8d 34 3b          	lea    (%r11,%r15,1),%rsi
    5b9d:	4c 89 9c 24 b0 06 00 	mov    %r11,0x6b0(%rsp)
    5ba4:	00 
    5ba5:	4e 8d 1c 3e          	lea    (%rsi,%r15,1),%r11
    5ba9:	48 89 b4 24 a8 06 00 	mov    %rsi,0x6a8(%rsp)
    5bb0:	00 
    5bb1:	4b 8d 34 3b          	lea    (%r11,%r15,1),%rsi
    5bb5:	4c 89 9c 24 a0 06 00 	mov    %r11,0x6a0(%rsp)
    5bbc:	00 
    5bbd:	4e 8d 1c 3e          	lea    (%rsi,%r15,1),%r11
    5bc1:	48 89 b4 24 98 06 00 	mov    %rsi,0x698(%rsp)
    5bc8:	00 
    5bc9:	4b 8d 34 3b          	lea    (%r11,%r15,1),%rsi
    5bcd:	4c 89 9c 24 90 06 00 	mov    %r11,0x690(%rsp)
    5bd4:	00 
    5bd5:	4e 8d 1c 3e          	lea    (%rsi,%r15,1),%r11
    5bd9:	48 89 b4 24 88 06 00 	mov    %rsi,0x688(%rsp)
    5be0:	00 
    5be1:	4b 8d 34 3b          	lea    (%r11,%r15,1),%rsi
    5be5:	4c 89 9c 24 80 06 00 	mov    %r11,0x680(%rsp)
    5bec:	00 
    5bed:	4e 8d 1c 3e          	lea    (%rsi,%r15,1),%r11
    5bf1:	48 89 b4 24 78 06 00 	mov    %rsi,0x678(%rsp)
    5bf8:	00 
    5bf9:	4b 8d 34 3b          	lea    (%r11,%r15,1),%rsi
    5bfd:	4c 89 9c 24 70 06 00 	mov    %r11,0x670(%rsp)
    5c04:	00 
    5c05:	4e 8d 1c 3e          	lea    (%rsi,%r15,1),%r11
    5c09:	48 89 b4 24 68 06 00 	mov    %rsi,0x668(%rsp)
    5c10:	00 
    5c11:	4b 8d 34 3b          	lea    (%r11,%r15,1),%rsi
    5c15:	4c 89 9c 24 60 06 00 	mov    %r11,0x660(%rsp)
    5c1c:	00 
    5c1d:	4e 8d 1c 3e          	lea    (%rsi,%r15,1),%r11
    5c21:	48 89 b4 24 58 06 00 	mov    %rsi,0x658(%rsp)
    5c28:	00 
    5c29:	4a 8d 34 3a          	lea    (%rdx,%r15,1),%rsi
    5c2d:	4c 89 ac 24 60 07 00 	mov    %r13,0x760(%rsp)
    5c34:	00 
    5c35:	4f 8d 2c 3e          	lea    (%r14,%r15,1),%r13
    5c39:	48 89 b4 24 28 07 00 	mov    %rsi,0x728(%rsp)
    5c40:	00 
    5c41:	4c 01 fe             	add    %r15,%rsi
    5c44:	4c 89 a4 24 58 07 00 	mov    %r12,0x758(%rsp)
    5c4b:	00 
    5c4c:	48 89 8c 24 48 07 00 	mov    %rcx,0x748(%rsp)
    5c53:	00 
    5c54:	4c 89 b4 24 38 07 00 	mov    %r14,0x738(%rsp)
    5c5b:	00 
    5c5c:	4f 8d 74 3d 00       	lea    0x0(%r13,%r15,1),%r14
    5c61:	4c 89 ac 24 30 07 00 	mov    %r13,0x730(%rsp)
    5c68:	00 
    5c69:	4f 8d 2c 3e          	lea    (%r14,%r15,1),%r13
    5c6d:	48 89 b4 24 20 07 00 	mov    %rsi,0x720(%rsp)
    5c74:	00 
    5c75:	4c 01 fe             	add    %r15,%rsi
    5c78:	4f 8d 64 3d 00       	lea    0x0(%r13,%r15,1),%r12
    5c7d:	48 89 b4 24 18 07 00 	mov    %rsi,0x718(%rsp)
    5c84:	00 
    5c85:	4c 01 fe             	add    %r15,%rsi
    5c88:	4b 8d 0c 3c          	lea    (%r12,%r15,1),%rcx
    5c8c:	48 89 b4 24 10 07 00 	mov    %rsi,0x710(%rsp)
    5c93:	00 
    5c94:	4c 01 fe             	add    %r15,%rsi
    5c97:	48 89 b4 24 08 07 00 	mov    %rsi,0x708(%rsp)
    5c9e:	00 
    5c9f:	4c 01 fe             	add    %r15,%rsi
    5ca2:	4a 8d 3c 3e          	lea    (%rsi,%r15,1),%rdi
    5ca6:	48 89 b4 24 00 07 00 	mov    %rsi,0x700(%rsp)
    5cad:	00 
    5cae:	4a 8d 34 3f          	lea    (%rdi,%r15,1),%rsi
    5cb2:	48 89 bc 24 f8 06 00 	mov    %rdi,0x6f8(%rsp)
    5cb9:	00 
    5cba:	48 89 b4 24 f0 06 00 	mov    %rsi,0x6f0(%rsp)
    5cc1:	00 
    5cc2:	4c 01 fe             	add    %r15,%rsi
    5cc5:	4a 8d 3c 3e          	lea    (%rsi,%r15,1),%rdi
    5cc9:	48 89 b4 24 e8 06 00 	mov    %rsi,0x6e8(%rsp)
    5cd0:	00 
    5cd1:	4a 8d 34 3f          	lea    (%rdi,%r15,1),%rsi
    5cd5:	48 89 bc 24 e0 06 00 	mov    %rdi,0x6e0(%rsp)
    5cdc:	00 
    5cdd:	48 89 b4 24 d8 06 00 	mov    %rsi,0x6d8(%rsp)
    5ce4:	00 
    5ce5:	4c 01 fe             	add    %r15,%rsi
    5ce8:	4a 8d 3c 3e          	lea    (%rsi,%r15,1),%rdi
    5cec:	48 89 b4 24 d0 06 00 	mov    %rsi,0x6d0(%rsp)
    5cf3:	00 
    5cf4:	48 89 bc 24 c8 06 00 	mov    %rdi,0x6c8(%rsp)
    5cfb:	00 
    5cfc:	4a 8d 34 3f          	lea    (%rdi,%r15,1),%rsi
    5d00:	48 8b bc 24 50 06 00 	mov    0x650(%rsp),%rdi
    5d07:	00 
    5d08:	4c 01 ff             	add    %r15,%rdi
    5d0b:	48 89 bc 24 40 06 00 	mov    %rdi,0x640(%rsp)
    5d12:	00 
    5d13:	4c 01 ff             	add    %r15,%rdi
    5d16:	48 89 bc 24 38 06 00 	mov    %rdi,0x638(%rsp)
    5d1d:	00 
    5d1e:	4c 01 ff             	add    %r15,%rdi
    5d21:	48 89 bc 24 30 06 00 	mov    %rdi,0x630(%rsp)
    5d28:	00 
    5d29:	4c 01 ff             	add    %r15,%rdi
    5d2c:	48 89 bc 24 28 06 00 	mov    %rdi,0x628(%rsp)
    5d33:	00 
    5d34:	4c 01 ff             	add    %r15,%rdi
    5d37:	48 89 bc 24 20 06 00 	mov    %rdi,0x620(%rsp)
    5d3e:	00 
    5d3f:	4c 01 ff             	add    %r15,%rdi
    5d42:	48 89 bc 24 18 06 00 	mov    %rdi,0x618(%rsp)
    5d49:	00 
    5d4a:	4c 01 ff             	add    %r15,%rdi
    5d4d:	48 89 bc 24 10 06 00 	mov    %rdi,0x610(%rsp)
    5d54:	00 
    5d55:	4c 01 ff             	add    %r15,%rdi
    5d58:	48 89 bc 24 08 06 00 	mov    %rdi,0x608(%rsp)
    5d5f:	00 
    5d60:	4c 01 ff             	add    %r15,%rdi
    5d63:	48 89 bc 24 00 06 00 	mov    %rdi,0x600(%rsp)
    5d6a:	00 
    5d6b:	4c 01 ff             	add    %r15,%rdi
    5d6e:	48 89 bc 24 f8 05 00 	mov    %rdi,0x5f8(%rsp)
    5d75:	00 
    5d76:	4c 01 ff             	add    %r15,%rdi
    5d79:	48 89 bc 24 f0 05 00 	mov    %rdi,0x5f0(%rsp)
    5d80:	00 
    5d81:	4c 01 ff             	add    %r15,%rdi
    5d84:	48 89 bc 24 e8 05 00 	mov    %rdi,0x5e8(%rsp)
    5d8b:	00 
    5d8c:	4c 01 ff             	add    %r15,%rdi
    5d8f:	48 89 bc 24 e0 05 00 	mov    %rdi,0x5e0(%rsp)
    5d96:	00 
    5d97:	4c 01 ff             	add    %r15,%rdi
    5d9a:	48 89 bc 24 48 06 00 	mov    %rdi,0x648(%rsp)
    5da1:	00 
    5da2:	48 8b bc 24 c0 06 00 	mov    0x6c0(%rsp),%rdi
    5da9:	00 
    5daa:	0f b6 3f             	movzbl (%rdi),%edi
    5dad:	c5 f9 6e cf          	vmovd  %edi,%xmm1
    5db1:	48 8b bc 24 b8 06 00 	mov    0x6b8(%rsp),%rdi
    5db8:	00 
    5db9:	c4 e3 71 20 0f 01    	vpinsrb $0x1,(%rdi),%xmm1,%xmm1
    5dbf:	48 8b bc 24 b0 06 00 	mov    0x6b0(%rsp),%rdi
    5dc6:	00 
    5dc7:	0f b6 3f             	movzbl (%rdi),%edi
    5dca:	c5 f9 6e ff          	vmovd  %edi,%xmm7
    5dce:	48 8b bc 24 a8 06 00 	mov    0x6a8(%rsp),%rdi
    5dd5:	00 
    5dd6:	c4 e3 41 20 3f 01    	vpinsrb $0x1,(%rdi),%xmm7,%xmm7
    5ddc:	48 8b bc 24 a0 06 00 	mov    0x6a0(%rsp),%rdi
    5de3:	00 
    5de4:	0f b6 3f             	movzbl (%rdi),%edi
    5de7:	c5 f1 61 cf          	vpunpcklwd %xmm7,%xmm1,%xmm1
    5deb:	c5 f9 6e df          	vmovd  %edi,%xmm3
    5def:	48 8b bc 24 98 06 00 	mov    0x698(%rsp),%rdi
    5df6:	00 
    5df7:	c4 e3 61 20 1f 01    	vpinsrb $0x1,(%rdi),%xmm3,%xmm3
    5dfd:	48 8b bc 24 90 06 00 	mov    0x690(%rsp),%rdi
    5e04:	00 
    5e05:	0f b6 3f             	movzbl (%rdi),%edi
    5e08:	c5 f9 6e f7          	vmovd  %edi,%xmm6
    5e0c:	48 8b bc 24 88 06 00 	mov    0x688(%rsp),%rdi
    5e13:	00 
    5e14:	c4 e3 49 20 37 01    	vpinsrb $0x1,(%rdi),%xmm6,%xmm6
    5e1a:	48 8b bc 24 80 06 00 	mov    0x680(%rsp),%rdi
    5e21:	00 
    5e22:	0f b6 3f             	movzbl (%rdi),%edi
    5e25:	c5 e1 61 de          	vpunpcklwd %xmm6,%xmm3,%xmm3
    5e29:	c5 f1 62 cb          	vpunpckldq %xmm3,%xmm1,%xmm1
    5e2d:	c5 f9 6e c7          	vmovd  %edi,%xmm0
    5e31:	48 8b bc 24 78 06 00 	mov    0x678(%rsp),%rdi
    5e38:	00 
    5e39:	c4 e3 79 20 07 01    	vpinsrb $0x1,(%rdi),%xmm0,%xmm0
    5e3f:	48 8b bc 24 70 06 00 	mov    0x670(%rsp),%rdi
    5e46:	00 
    5e47:	0f b6 3f             	movzbl (%rdi),%edi
    5e4a:	c5 f9 6e ef          	vmovd  %edi,%xmm5
    5e4e:	48 8b bc 24 68 06 00 	mov    0x668(%rsp),%rdi
    5e55:	00 
    5e56:	c4 e3 51 20 2f 01    	vpinsrb $0x1,(%rdi),%xmm5,%xmm5
    5e5c:	48 8b bc 24 60 06 00 	mov    0x660(%rsp),%rdi
    5e63:	00 
    5e64:	0f b6 3f             	movzbl (%rdi),%edi
    5e67:	c5 f9 61 c5          	vpunpcklwd %xmm5,%xmm0,%xmm0
    5e6b:	c5 f9 6e d7          	vmovd  %edi,%xmm2
    5e6f:	48 8b bc 24 58 06 00 	mov    0x658(%rsp),%rdi
    5e76:	00 
    5e77:	c4 e3 69 20 17 01    	vpinsrb $0x1,(%rdi),%xmm2,%xmm2
    5e7d:	41 0f b6 3b          	movzbl (%r11),%edi
    5e81:	c5 f9 6e e7          	vmovd  %edi,%xmm4
    5e85:	48 8b bc 24 c0 06 00 	mov    0x6c0(%rsp),%rdi
    5e8c:	00 
    5e8d:	c4 83 59 20 24 3b 01 	vpinsrb $0x1,(%r11,%r15,1),%xmm4,%xmm4
    5e94:	0f b6 7f 01          	movzbl 0x1(%rdi),%edi
    5e98:	c5 e9 61 d4          	vpunpcklwd %xmm4,%xmm2,%xmm2
    5e9c:	c5 f9 62 c2          	vpunpckldq %xmm2,%xmm0,%xmm0
    5ea0:	c5 f1 6c e0          	vpunpcklqdq %xmm0,%xmm1,%xmm4
    5ea4:	c5 f9 6e c7          	vmovd  %edi,%xmm0
    5ea8:	48 8b bc 24 b8 06 00 	mov    0x6b8(%rsp),%rdi
    5eaf:	00 
    5eb0:	c4 e3 79 20 47 01 01 	vpinsrb $0x1,0x1(%rdi),%xmm0,%xmm0
    5eb7:	48 8b bc 24 b0 06 00 	mov    0x6b0(%rsp),%rdi
    5ebe:	00 
    5ebf:	0f b6 7f 01          	movzbl 0x1(%rdi),%edi
    5ec3:	c5 79 6e c7          	vmovd  %edi,%xmm8
    5ec7:	48 8b bc 24 a8 06 00 	mov    0x6a8(%rsp),%rdi
    5ece:	00 
    5ecf:	c4 63 39 20 47 01 01 	vpinsrb $0x1,0x1(%rdi),%xmm8,%xmm8
    5ed6:	48 8b bc 24 a0 06 00 	mov    0x6a0(%rsp),%rdi
    5edd:	00 
    5ede:	0f b6 7f 01          	movzbl 0x1(%rdi),%edi
    5ee2:	c4 c1 79 61 c0       	vpunpcklwd %xmm8,%xmm0,%xmm0
    5ee7:	c5 f9 6e df          	vmovd  %edi,%xmm3
    5eeb:	48 8b bc 24 98 06 00 	mov    0x698(%rsp),%rdi
    5ef2:	00 
    5ef3:	c4 e3 61 20 5f 01 01 	vpinsrb $0x1,0x1(%rdi),%xmm3,%xmm3
    5efa:	48 8b bc 24 90 06 00 	mov    0x690(%rsp),%rdi
    5f01:	00 
    5f02:	0f b6 7f 01          	movzbl 0x1(%rdi),%edi
    5f06:	c5 f9 6e ff          	vmovd  %edi,%xmm7
    5f0a:	48 8b bc 24 88 06 00 	mov    0x688(%rsp),%rdi
    5f11:	00 
    5f12:	c4 e3 41 20 7f 01 01 	vpinsrb $0x1,0x1(%rdi),%xmm7,%xmm7
    5f19:	48 8b bc 24 80 06 00 	mov    0x680(%rsp),%rdi
    5f20:	00 
    5f21:	0f b6 7f 01          	movzbl 0x1(%rdi),%edi
    5f25:	c5 e1 61 df          	vpunpcklwd %xmm7,%xmm3,%xmm3
    5f29:	c5 f9 62 c3          	vpunpckldq %xmm3,%xmm0,%xmm0
    5f2d:	c5 f9 6e cf          	vmovd  %edi,%xmm1
    5f31:	48 8b bc 24 78 06 00 	mov    0x678(%rsp),%rdi
    5f38:	00 
    5f39:	c4 e3 71 20 4f 01 01 	vpinsrb $0x1,0x1(%rdi),%xmm1,%xmm1
    5f40:	48 8b bc 24 70 06 00 	mov    0x670(%rsp),%rdi
    5f47:	00 
    5f48:	0f b6 7f 01          	movzbl 0x1(%rdi),%edi
    5f4c:	c5 f9 6e f7          	vmovd  %edi,%xmm6
    5f50:	48 8b bc 24 68 06 00 	mov    0x668(%rsp),%rdi
    5f57:	00 
    5f58:	c4 e3 49 20 77 01 01 	vpinsrb $0x1,0x1(%rdi),%xmm6,%xmm6
    5f5f:	48 8b bc 24 60 06 00 	mov    0x660(%rsp),%rdi
    5f66:	00 
    5f67:	0f b6 7f 01          	movzbl 0x1(%rdi),%edi
    5f6b:	c5 f1 61 ce          	vpunpcklwd %xmm6,%xmm1,%xmm1
    5f6f:	c5 f9 6e d7          	vmovd  %edi,%xmm2
    5f73:	48 8b bc 24 58 06 00 	mov    0x658(%rsp),%rdi
    5f7a:	00 
    5f7b:	c4 e3 69 20 57 01 01 	vpinsrb $0x1,0x1(%rdi),%xmm2,%xmm2
    5f82:	41 0f b6 7b 01       	movzbl 0x1(%r11),%edi
    5f87:	c5 f9 6e ef          	vmovd  %edi,%xmm5
    5f8b:	48 8b bc 24 80 07 00 	mov    0x780(%rsp),%rdi
    5f92:	00 
    5f93:	c4 83 51 20 6c 3b 01 	vpinsrb $0x1,0x1(%r11,%r15,1),%xmm5,%xmm5
    5f9a:	01 
    5f9b:	0f b6 7f 03          	movzbl 0x3(%rdi),%edi
    5f9f:	c5 e9 61 d5          	vpunpcklwd %xmm5,%xmm2,%xmm2
    5fa3:	c5 f1 62 ca          	vpunpckldq %xmm2,%xmm1,%xmm1
    5fa7:	c5 f9 6e d7          	vmovd  %edi,%xmm2
    5fab:	48 8b bc 24 78 07 00 	mov    0x778(%rsp),%rdi
    5fb2:	00 
    5fb3:	c5 f9 6c c1          	vpunpcklqdq %xmm1,%xmm0,%xmm0
    5fb7:	c5 f9 fc c4          	vpaddb %xmm4,%xmm0,%xmm0
    5fbb:	c4 e3 69 20 57 03 01 	vpinsrb $0x1,0x3(%rdi),%xmm2,%xmm2
    5fc2:	48 8b bc 24 70 07 00 	mov    0x770(%rsp),%rdi
    5fc9:	00 
    5fca:	0f b6 7f 03          	movzbl 0x3(%rdi),%edi
    5fce:	c5 79 6e c7          	vmovd  %edi,%xmm8
    5fd2:	48 8b bc 24 68 07 00 	mov    0x768(%rsp),%rdi
    5fd9:	00 
    5fda:	c4 63 39 20 47 03 01 	vpinsrb $0x1,0x3(%rdi),%xmm8,%xmm8
    5fe1:	48 8b bc 24 60 07 00 	mov    0x760(%rsp),%rdi
    5fe8:	00 
    5fe9:	0f b6 7f 03          	movzbl 0x3(%rdi),%edi
    5fed:	c4 c1 69 61 d0       	vpunpcklwd %xmm8,%xmm2,%xmm2
    5ff2:	c5 f9 6e e7          	vmovd  %edi,%xmm4
    5ff6:	48 8b bc 24 58 07 00 	mov    0x758(%rsp),%rdi
    5ffd:	00 
    5ffe:	c4 e3 59 20 67 03 01 	vpinsrb $0x1,0x3(%rdi),%xmm4,%xmm4
    6005:	48 8b bc 24 50 07 00 	mov    0x750(%rsp),%rdi
    600c:	00 
    600d:	0f b6 7f 03          	movzbl 0x3(%rdi),%edi
    6011:	c5 f9 6e ff          	vmovd  %edi,%xmm7
    6015:	48 8b bc 24 48 07 00 	mov    0x748(%rsp),%rdi
    601c:	00 
    601d:	c4 e3 41 20 7f 03 01 	vpinsrb $0x1,0x3(%rdi),%xmm7,%xmm7
    6024:	48 8b bc 24 40 07 00 	mov    0x740(%rsp),%rdi
    602b:	00 
    602c:	0f b6 7f 03          	movzbl 0x3(%rdi),%edi
    6030:	c5 d9 61 e7          	vpunpcklwd %xmm7,%xmm4,%xmm4
    6034:	c5 e9 62 d4          	vpunpckldq %xmm4,%xmm2,%xmm2
    6038:	c5 f9 6e cf          	vmovd  %edi,%xmm1
    603c:	48 8b bc 24 38 07 00 	mov    0x738(%rsp),%rdi
    6043:	00 
    6044:	c4 e3 71 20 4f 03 01 	vpinsrb $0x1,0x3(%rdi),%xmm1,%xmm1
    604b:	48 8b bc 24 30 07 00 	mov    0x730(%rsp),%rdi
    6052:	00 
    6053:	0f b6 7f 03          	movzbl 0x3(%rdi),%edi
    6057:	c5 f9 6e f7          	vmovd  %edi,%xmm6
    605b:	41 0f b6 7d 03       	movzbl 0x3(%r13),%edi
    6060:	c4 c3 49 20 76 03 01 	vpinsrb $0x1,0x3(%r14),%xmm6,%xmm6
    6067:	c5 f9 6e df          	vmovd  %edi,%xmm3
    606b:	0f b6 79 03          	movzbl 0x3(%rcx),%edi
    606f:	c4 c3 61 20 5c 24 03 	vpinsrb $0x1,0x3(%r12),%xmm3,%xmm3
    6076:	01 
    6077:	c5 f1 61 ce          	vpunpcklwd %xmm6,%xmm1,%xmm1
    607b:	c5 f9 6e ef          	vmovd  %edi,%xmm5
    607f:	c4 a3 51 20 6c 39 03 	vpinsrb $0x1,0x3(%rcx,%r15,1),%xmm5,%xmm5
    6086:	01 
    6087:	0f b6 7a 02          	movzbl 0x2(%rdx),%edi
    608b:	c5 e1 61 dd          	vpunpcklwd %xmm5,%xmm3,%xmm3
    608f:	c5 f1 62 cb          	vpunpckldq %xmm3,%xmm1,%xmm1
    6093:	c5 e9 6c e9          	vpunpcklqdq %xmm1,%xmm2,%xmm5
    6097:	c5 f9 6e cf          	vmovd  %edi,%xmm1
    609b:	48 8b bc 24 28 07 00 	mov    0x728(%rsp),%rdi
    60a2:	00 
    60a3:	c4 e3 71 20 4f 02 01 	vpinsrb $0x1,0x2(%rdi),%xmm1,%xmm1
    60aa:	48 8b bc 24 20 07 00 	mov    0x720(%rsp),%rdi
    60b1:	00 
    60b2:	0f b6 7f 02          	movzbl 0x2(%rdi),%edi
    60b6:	c5 79 6e cf          	vmovd  %edi,%xmm9
    60ba:	48 8b bc 24 18 07 00 	mov    0x718(%rsp),%rdi
    60c1:	00 
    60c2:	c4 63 31 20 4f 02 01 	vpinsrb $0x1,0x2(%rdi),%xmm9,%xmm9
    60c9:	48 8b bc 24 10 07 00 	mov    0x710(%rsp),%rdi
    60d0:	00 
    60d1:	0f b6 7f 02          	movzbl 0x2(%rdi),%edi
    60d5:	c4 c1 71 61 c9       	vpunpcklwd %xmm9,%xmm1,%xmm1
    60da:	c5 f9 6e e7          	vmovd  %edi,%xmm4
    60de:	48 8b bc 24 08 07 00 	mov    0x708(%rsp),%rdi
    60e5:	00 
    60e6:	c4 e3 59 20 67 02 01 	vpinsrb $0x1,0x2(%rdi),%xmm4,%xmm4
    60ed:	48 8b bc 24 00 07 00 	mov    0x700(%rsp),%rdi
    60f4:	00 
    60f5:	0f b6 7f 02          	movzbl 0x2(%rdi),%edi
    60f9:	c5 79 6e c7          	vmovd  %edi,%xmm8
    60fd:	48 8b bc 24 f8 06 00 	mov    0x6f8(%rsp),%rdi
    6104:	00 
    6105:	c4 63 39 20 47 02 01 	vpinsrb $0x1,0x2(%rdi),%xmm8,%xmm8
    610c:	48 8b bc 24 f0 06 00 	mov    0x6f0(%rsp),%rdi
    6113:	00 
    6114:	0f b6 7f 02          	movzbl 0x2(%rdi),%edi
    6118:	c4 c1 59 61 e0       	vpunpcklwd %xmm8,%xmm4,%xmm4
    611d:	c5 f1 62 cc          	vpunpckldq %xmm4,%xmm1,%xmm1
    6121:	c5 f9 6e d7          	vmovd  %edi,%xmm2
    6125:	48 8b bc 24 e8 06 00 	mov    0x6e8(%rsp),%rdi
    612c:	00 
    612d:	c4 e3 69 20 57 02 01 	vpinsrb $0x1,0x2(%rdi),%xmm2,%xmm2
    6134:	48 8b bc 24 e0 06 00 	mov    0x6e0(%rsp),%rdi
    613b:	00 
    613c:	0f b6 7f 02          	movzbl 0x2(%rdi),%edi
    6140:	c5 f9 6e ff          	vmovd  %edi,%xmm7
    6144:	48 8b bc 24 d8 06 00 	mov    0x6d8(%rsp),%rdi
    614b:	00 
    614c:	c4 e3 41 20 7f 02 01 	vpinsrb $0x1,0x2(%rdi),%xmm7,%xmm7
    6153:	48 8b bc 24 d0 06 00 	mov    0x6d0(%rsp),%rdi
    615a:	00 
    615b:	0f b6 7f 02          	movzbl 0x2(%rdi),%edi
    615f:	c5 e9 61 d7          	vpunpcklwd %xmm7,%xmm2,%xmm2
    6163:	c5 f9 6e df          	vmovd  %edi,%xmm3
    6167:	48 8b bc 24 c8 06 00 	mov    0x6c8(%rsp),%rdi
    616e:	00 
    616f:	c4 e3 61 20 5f 02 01 	vpinsrb $0x1,0x2(%rdi),%xmm3,%xmm3
    6176:	0f b6 7e 02          	movzbl 0x2(%rsi),%edi
    617a:	c5 f9 6e f7          	vmovd  %edi,%xmm6
    617e:	c4 a3 49 20 74 3e 02 	vpinsrb $0x1,0x2(%rsi,%r15,1),%xmm6,%xmm6
    6185:	01 
    6186:	0f b6 7a 03          	movzbl 0x3(%rdx),%edi
    618a:	c5 e1 61 de          	vpunpcklwd %xmm6,%xmm3,%xmm3
    618e:	c5 e9 62 d3          	vpunpckldq %xmm3,%xmm2,%xmm2
    6192:	c5 f1 6c ca          	vpunpcklqdq %xmm2,%xmm1,%xmm1
    6196:	c5 f9 6e d7          	vmovd  %edi,%xmm2
    619a:	48 8b bc 24 28 07 00 	mov    0x728(%rsp),%rdi
    61a1:	00 
    61a2:	c5 f1 fc cd          	vpaddb %xmm5,%xmm1,%xmm1
    61a6:	c4 e3 69 20 57 03 01 	vpinsrb $0x1,0x3(%rdi),%xmm2,%xmm2
    61ad:	48 8b bc 24 20 07 00 	mov    0x720(%rsp),%rdi
    61b4:	00 
    61b5:	c5 f9 fc c1          	vpaddb %xmm1,%xmm0,%xmm0
    61b9:	0f b6 7f 03          	movzbl 0x3(%rdi),%edi
    61bd:	c5 79 6e c7          	vmovd  %edi,%xmm8
    61c1:	48 8b bc 24 18 07 00 	mov    0x718(%rsp),%rdi
    61c8:	00 
    61c9:	c4 63 39 20 47 03 01 	vpinsrb $0x1,0x3(%rdi),%xmm8,%xmm8
    61d0:	48 8b bc 24 10 07 00 	mov    0x710(%rsp),%rdi
    61d7:	00 
    61d8:	0f b6 7f 03          	movzbl 0x3(%rdi),%edi
    61dc:	c4 c1 69 61 d0       	vpunpcklwd %xmm8,%xmm2,%xmm2
    61e1:	c5 f9 6e e7          	vmovd  %edi,%xmm4
    61e5:	48 8b bc 24 08 07 00 	mov    0x708(%rsp),%rdi
    61ec:	00 
    61ed:	c4 e3 59 20 67 03 01 	vpinsrb $0x1,0x3(%rdi),%xmm4,%xmm4
    61f4:	48 8b bc 24 00 07 00 	mov    0x700(%rsp),%rdi
    61fb:	00 
    61fc:	0f b6 7f 03          	movzbl 0x3(%rdi),%edi
    6200:	c5 f9 6e ff          	vmovd  %edi,%xmm7
    6204:	48 8b bc 24 f8 06 00 	mov    0x6f8(%rsp),%rdi
    620b:	00 
    620c:	c4 e3 41 20 7f 03 01 	vpinsrb $0x1,0x3(%rdi),%xmm7,%xmm7
    6213:	48 8b bc 24 f0 06 00 	mov    0x6f0(%rsp),%rdi
    621a:	00 
    621b:	0f b6 7f 03          	movzbl 0x3(%rdi),%edi
    621f:	c5 d9 61 e7          	vpunpcklwd %xmm7,%xmm4,%xmm4
    6223:	c5 e9 62 d4          	vpunpckldq %xmm4,%xmm2,%xmm2
    6227:	c5 f9 6e cf          	vmovd  %edi,%xmm1
    622b:	48 8b bc 24 e8 06 00 	mov    0x6e8(%rsp),%rdi
    6232:	00 
    6233:	c4 e3 71 20 4f 03 01 	vpinsrb $0x1,0x3(%rdi),%xmm1,%xmm1
    623a:	48 8b bc 24 e0 06 00 	mov    0x6e0(%rsp),%rdi
    6241:	00 
    6242:	0f b6 7f 03          	movzbl 0x3(%rdi),%edi
    6246:	c5 f9 6e f7          	vmovd  %edi,%xmm6
    624a:	48 8b bc 24 d8 06 00 	mov    0x6d8(%rsp),%rdi
    6251:	00 
    6252:	c4 e3 49 20 77 03 01 	vpinsrb $0x1,0x3(%rdi),%xmm6,%xmm6
    6259:	48 8b bc 24 d0 06 00 	mov    0x6d0(%rsp),%rdi
    6260:	00 
    6261:	0f b6 7f 03          	movzbl 0x3(%rdi),%edi
    6265:	c5 f1 61 ce          	vpunpcklwd %xmm6,%xmm1,%xmm1
    6269:	c5 f9 6e df          	vmovd  %edi,%xmm3
    626d:	48 8b bc 24 c8 06 00 	mov    0x6c8(%rsp),%rdi
    6274:	00 
    6275:	c4 e3 61 20 5f 03 01 	vpinsrb $0x1,0x3(%rdi),%xmm3,%xmm3
    627c:	0f b6 7e 03          	movzbl 0x3(%rsi),%edi
    6280:	c5 f9 6e ef          	vmovd  %edi,%xmm5
    6284:	48 8b bc 24 80 07 00 	mov    0x780(%rsp),%rdi
    628b:	00 
    628c:	c4 a3 51 20 6c 3e 03 	vpinsrb $0x1,0x3(%rsi,%r15,1),%xmm5,%xmm5
    6293:	01 
    6294:	0f b6 7f 01          	movzbl 0x1(%rdi),%edi
    6298:	c5 e1 61 dd          	vpunpcklwd %xmm5,%xmm3,%xmm3
    629c:	c5 f1 62 cb          	vpunpckldq %xmm3,%xmm1,%xmm1
    62a0:	c5 e9 6c e9          	vpunpcklqdq %xmm1,%xmm2,%xmm5
    62a4:	c5 f9 6e cf          	vmovd  %edi,%xmm1
    62a8:	48 8b bc 24 78 07 00 	mov    0x778(%rsp),%rdi
    62af:	00 
    62b0:	c4 e3 71 20 4f 01 01 	vpinsrb $0x1,0x1(%rdi),%xmm1,%xmm1
    62b7:	48 8b bc 24 70 07 00 	mov    0x770(%rsp),%rdi
    62be:	00 
    62bf:	0f b6 7f 01          	movzbl 0x1(%rdi),%edi
    62c3:	c5 79 6e cf          	vmovd  %edi,%xmm9
    62c7:	48 8b bc 24 68 07 00 	mov    0x768(%rsp),%rdi
    62ce:	00 
    62cf:	c4 63 31 20 4f 01 01 	vpinsrb $0x1,0x1(%rdi),%xmm9,%xmm9
    62d6:	48 8b bc 24 60 07 00 	mov    0x760(%rsp),%rdi
    62dd:	00 
    62de:	0f b6 7f 01          	movzbl 0x1(%rdi),%edi
    62e2:	c4 c1 71 61 c9       	vpunpcklwd %xmm9,%xmm1,%xmm1
    62e7:	c5 f9 6e e7          	vmovd  %edi,%xmm4
    62eb:	48 8b bc 24 58 07 00 	mov    0x758(%rsp),%rdi
    62f2:	00 
    62f3:	c4 e3 59 20 67 01 01 	vpinsrb $0x1,0x1(%rdi),%xmm4,%xmm4
    62fa:	48 8b bc 24 50 07 00 	mov    0x750(%rsp),%rdi
    6301:	00 
    6302:	0f b6 7f 01          	movzbl 0x1(%rdi),%edi
    6306:	c5 79 6e c7          	vmovd  %edi,%xmm8
    630a:	48 8b bc 24 48 07 00 	mov    0x748(%rsp),%rdi
    6311:	00 
    6312:	c4 63 39 20 47 01 01 	vpinsrb $0x1,0x1(%rdi),%xmm8,%xmm8
    6319:	48 8b bc 24 40 07 00 	mov    0x740(%rsp),%rdi
    6320:	00 
    6321:	0f b6 7f 01          	movzbl 0x1(%rdi),%edi
    6325:	c4 c1 59 61 e0       	vpunpcklwd %xmm8,%xmm4,%xmm4
    632a:	c5 f1 62 cc          	vpunpckldq %xmm4,%xmm1,%xmm1
    632e:	c5 f9 6e d7          	vmovd  %edi,%xmm2
    6332:	48 8b bc 24 38 07 00 	mov    0x738(%rsp),%rdi
    6339:	00 
    633a:	c4 e3 69 20 57 01 01 	vpinsrb $0x1,0x1(%rdi),%xmm2,%xmm2
    6341:	48 8b bc 24 30 07 00 	mov    0x730(%rsp),%rdi
    6348:	00 
    6349:	0f b6 7f 01          	movzbl 0x1(%rdi),%edi
    634d:	c5 f9 6e ff          	vmovd  %edi,%xmm7
    6351:	41 0f b6 7d 01       	movzbl 0x1(%r13),%edi
    6356:	c4 c3 41 20 7e 01 01 	vpinsrb $0x1,0x1(%r14),%xmm7,%xmm7
    635d:	c5 f9 6e df          	vmovd  %edi,%xmm3
    6361:	0f b6 79 01          	movzbl 0x1(%rcx),%edi
    6365:	c4 c3 61 20 5c 24 01 	vpinsrb $0x1,0x1(%r12),%xmm3,%xmm3
    636c:	01 
    636d:	c5 e9 61 d7          	vpunpcklwd %xmm7,%xmm2,%xmm2
    6371:	c5 f9 6e f7          	vmovd  %edi,%xmm6
    6375:	c4 a3 49 20 74 39 01 	vpinsrb $0x1,0x1(%rcx,%r15,1),%xmm6,%xmm6
    637c:	01 
    637d:	0f b6 7a 01          	movzbl 0x1(%rdx),%edi
    6381:	c5 e1 61 de          	vpunpcklwd %xmm6,%xmm3,%xmm3
    6385:	c5 e9 62 d3          	vpunpckldq %xmm3,%xmm2,%xmm2
    6389:	c5 f1 6c ca          	vpunpcklqdq %xmm2,%xmm1,%xmm1
    638d:	c5 f9 6e d7          	vmovd  %edi,%xmm2
    6391:	48 8b bc 24 28 07 00 	mov    0x728(%rsp),%rdi
    6398:	00 
    6399:	c5 f1 fc cd          	vpaddb %xmm5,%xmm1,%xmm1
    639d:	c4 e3 69 20 57 01 01 	vpinsrb $0x1,0x1(%rdi),%xmm2,%xmm2
    63a4:	48 8b bc 24 20 07 00 	mov    0x720(%rsp),%rdi
    63ab:	00 
    63ac:	c5 f9 fc c1          	vpaddb %xmm1,%xmm0,%xmm0
    63b0:	0f b6 7f 01          	movzbl 0x1(%rdi),%edi
    63b4:	c5 79 6e c7          	vmovd  %edi,%xmm8
    63b8:	48 8b bc 24 18 07 00 	mov    0x718(%rsp),%rdi
    63bf:	00 
    63c0:	c4 63 39 20 47 01 01 	vpinsrb $0x1,0x1(%rdi),%xmm8,%xmm8
    63c7:	48 8b bc 24 10 07 00 	mov    0x710(%rsp),%rdi
    63ce:	00 
    63cf:	0f b6 7f 01          	movzbl 0x1(%rdi),%edi
    63d3:	c4 c1 69 61 d0       	vpunpcklwd %xmm8,%xmm2,%xmm2
    63d8:	c5 f9 6e e7          	vmovd  %edi,%xmm4
    63dc:	48 8b bc 24 08 07 00 	mov    0x708(%rsp),%rdi
    63e3:	00 
    63e4:	c4 e3 59 20 67 01 01 	vpinsrb $0x1,0x1(%rdi),%xmm4,%xmm4
    63eb:	48 8b bc 24 00 07 00 	mov    0x700(%rsp),%rdi
    63f2:	00 
    63f3:	0f b6 7f 01          	movzbl 0x1(%rdi),%edi
    63f7:	c5 f9 6e ff          	vmovd  %edi,%xmm7
    63fb:	48 8b bc 24 f8 06 00 	mov    0x6f8(%rsp),%rdi
    6402:	00 
    6403:	c4 e3 41 20 7f 01 01 	vpinsrb $0x1,0x1(%rdi),%xmm7,%xmm7
    640a:	48 8b bc 24 f0 06 00 	mov    0x6f0(%rsp),%rdi
    6411:	00 
    6412:	0f b6 7f 01          	movzbl 0x1(%rdi),%edi
    6416:	c5 d9 61 e7          	vpunpcklwd %xmm7,%xmm4,%xmm4
    641a:	c5 e9 62 d4          	vpunpckldq %xmm4,%xmm2,%xmm2
    641e:	c5 f9 6e cf          	vmovd  %edi,%xmm1
    6422:	48 8b bc 24 e8 06 00 	mov    0x6e8(%rsp),%rdi
    6429:	00 
    642a:	c4 e3 71 20 4f 01 01 	vpinsrb $0x1,0x1(%rdi),%xmm1,%xmm1
    6431:	48 8b bc 24 e0 06 00 	mov    0x6e0(%rsp),%rdi
    6438:	00 
    6439:	0f b6 7f 01          	movzbl 0x1(%rdi),%edi
    643d:	c5 f9 6e f7          	vmovd  %edi,%xmm6
    6441:	48 8b bc 24 d8 06 00 	mov    0x6d8(%rsp),%rdi
    6448:	00 
    6449:	c4 e3 49 20 77 01 01 	vpinsrb $0x1,0x1(%rdi),%xmm6,%xmm6
    6450:	48 8b bc 24 d0 06 00 	mov    0x6d0(%rsp),%rdi
    6457:	00 
    6458:	0f b6 7f 01          	movzbl 0x1(%rdi),%edi
    645c:	c5 f1 61 ce          	vpunpcklwd %xmm6,%xmm1,%xmm1
    6460:	c5 f9 6e df          	vmovd  %edi,%xmm3
    6464:	48 8b bc 24 c8 06 00 	mov    0x6c8(%rsp),%rdi
    646b:	00 
    646c:	c4 e3 61 20 5f 01 01 	vpinsrb $0x1,0x1(%rdi),%xmm3,%xmm3
    6473:	0f b6 7e 01          	movzbl 0x1(%rsi),%edi
    6477:	c5 f9 6e ef          	vmovd  %edi,%xmm5
    647b:	48 8b bc 24 50 06 00 	mov    0x650(%rsp),%rdi
    6482:	00 
    6483:	c4 a3 51 20 6c 3e 01 	vpinsrb $0x1,0x1(%rsi,%r15,1),%xmm5,%xmm5
    648a:	01 
    648b:	0f b6 7f 01          	movzbl 0x1(%rdi),%edi
    648f:	c5 e1 61 dd          	vpunpcklwd %xmm5,%xmm3,%xmm3
    6493:	c5 f1 62 cb          	vpunpckldq %xmm3,%xmm1,%xmm1
    6497:	c5 e9 6c e9          	vpunpcklqdq %xmm1,%xmm2,%xmm5
    649b:	c5 f9 6e cf          	vmovd  %edi,%xmm1
    649f:	48 8b bc 24 40 06 00 	mov    0x640(%rsp),%rdi
    64a6:	00 
    64a7:	c4 e3 71 20 4f 01 01 	vpinsrb $0x1,0x1(%rdi),%xmm1,%xmm1
    64ae:	48 8b bc 24 38 06 00 	mov    0x638(%rsp),%rdi
    64b5:	00 
    64b6:	0f b6 7f 01          	movzbl 0x1(%rdi),%edi
    64ba:	c5 79 6e cf          	vmovd  %edi,%xmm9
    64be:	48 8b bc 24 30 06 00 	mov    0x630(%rsp),%rdi
    64c5:	00 
    64c6:	c4 63 31 20 4f 01 01 	vpinsrb $0x1,0x1(%rdi),%xmm9,%xmm9
    64cd:	48 8b bc 24 28 06 00 	mov    0x628(%rsp),%rdi
    64d4:	00 
    64d5:	0f b6 7f 01          	movzbl 0x1(%rdi),%edi
    64d9:	c4 c1 71 61 c9       	vpunpcklwd %xmm9,%xmm1,%xmm1
    64de:	c5 f9 6e e7          	vmovd  %edi,%xmm4
    64e2:	48 8b bc 24 20 06 00 	mov    0x620(%rsp),%rdi
    64e9:	00 
    64ea:	c4 e3 59 20 67 01 01 	vpinsrb $0x1,0x1(%rdi),%xmm4,%xmm4
    64f1:	48 8b bc 24 18 06 00 	mov    0x618(%rsp),%rdi
    64f8:	00 
    64f9:	0f b6 7f 01          	movzbl 0x1(%rdi),%edi
    64fd:	c5 79 6e c7          	vmovd  %edi,%xmm8
    6501:	48 8b bc 24 10 06 00 	mov    0x610(%rsp),%rdi
    6508:	00 
    6509:	c4 63 39 20 47 01 01 	vpinsrb $0x1,0x1(%rdi),%xmm8,%xmm8
    6510:	48 8b bc 24 08 06 00 	mov    0x608(%rsp),%rdi
    6517:	00 
    6518:	0f b6 7f 01          	movzbl 0x1(%rdi),%edi
    651c:	c4 c1 59 61 e0       	vpunpcklwd %xmm8,%xmm4,%xmm4
    6521:	c5 f1 62 cc          	vpunpckldq %xmm4,%xmm1,%xmm1
    6525:	c5 f9 6e d7          	vmovd  %edi,%xmm2
    6529:	48 8b bc 24 00 06 00 	mov    0x600(%rsp),%rdi
    6530:	00 
    6531:	c4 e3 69 20 57 01 01 	vpinsrb $0x1,0x1(%rdi),%xmm2,%xmm2
    6538:	48 8b bc 24 f8 05 00 	mov    0x5f8(%rsp),%rdi
    653f:	00 
    6540:	0f b6 7f 01          	movzbl 0x1(%rdi),%edi
    6544:	c5 f9 6e ff          	vmovd  %edi,%xmm7
    6548:	48 8b bc 24 f0 05 00 	mov    0x5f0(%rsp),%rdi
    654f:	00 
    6550:	c4 e3 41 20 7f 01 01 	vpinsrb $0x1,0x1(%rdi),%xmm7,%xmm7
    6557:	48 8b bc 24 e8 05 00 	mov    0x5e8(%rsp),%rdi
    655e:	00 
    655f:	0f b6 7f 01          	movzbl 0x1(%rdi),%edi
    6563:	c5 e9 61 d7          	vpunpcklwd %xmm7,%xmm2,%xmm2
    6567:	c5 f9 6e df          	vmovd  %edi,%xmm3
    656b:	48 8b bc 24 e0 05 00 	mov    0x5e0(%rsp),%rdi
    6572:	00 
    6573:	c4 e3 61 20 5f 01 01 	vpinsrb $0x1,0x1(%rdi),%xmm3,%xmm3
    657a:	48 8b bc 24 48 06 00 	mov    0x648(%rsp),%rdi
    6581:	00 
    6582:	0f b6 7f 01          	movzbl 0x1(%rdi),%edi
    6586:	c5 f9 6e f7          	vmovd  %edi,%xmm6
    658a:	48 8b bc 24 48 06 00 	mov    0x648(%rsp),%rdi
    6591:	00 
    6592:	c4 a3 49 20 74 3f 01 	vpinsrb $0x1,0x1(%rdi,%r15,1),%xmm6,%xmm6
    6599:	01 
    659a:	48 8b bc 24 80 07 00 	mov    0x780(%rsp),%rdi
    65a1:	00 
    65a2:	0f b6 7f 02          	movzbl 0x2(%rdi),%edi
    65a6:	c5 e1 61 de          	vpunpcklwd %xmm6,%xmm3,%xmm3
    65aa:	c5 e9 62 d3          	vpunpckldq %xmm3,%xmm2,%xmm2
    65ae:	c5 f9 6f 1d 8a 2f 00 	vmovdqa 0x2f8a(%rip),%xmm3        # 9540 <_IO_stdin_used+0x540>
    65b5:	00 
    65b6:	c5 f9 6e e7          	vmovd  %edi,%xmm4
    65ba:	48 8b bc 24 78 07 00 	mov    0x778(%rsp),%rdi
    65c1:	00 
    65c2:	c5 f1 6c ca          	vpunpcklqdq %xmm2,%xmm1,%xmm1
    65c6:	c5 f9 6f 15 52 2f 00 	vmovdqa 0x2f52(%rip),%xmm2        # 9520 <_IO_stdin_used+0x520>
    65cd:	00 
    65ce:	c5 f1 fc cd          	vpaddb %xmm5,%xmm1,%xmm1
    65d2:	c4 e3 59 20 67 02 01 	vpinsrb $0x1,0x2(%rdi),%xmm4,%xmm4
    65d9:	48 8b bc 24 70 07 00 	mov    0x770(%rsp),%rdi
    65e0:	00 
    65e1:	c5 f9 fc c1          	vpaddb %xmm1,%xmm0,%xmm0
    65e5:	c5 f9 6f 0d 13 2f 00 	vmovdqa 0x2f13(%rip),%xmm1        # 9500 <_IO_stdin_used+0x500>
    65ec:	00 
    65ed:	0f b6 7f 02          	movzbl 0x2(%rdi),%edi
    65f1:	c5 f9 74 f9          	vpcmpeqb %xmm1,%xmm0,%xmm7
    65f5:	c5 f9 74 c3          	vpcmpeqb %xmm3,%xmm0,%xmm0
    65f9:	c5 79 6e cf          	vmovd  %edi,%xmm9
    65fd:	48 8b bc 24 68 07 00 	mov    0x768(%rsp),%rdi
    6604:	00 
    6605:	c4 63 31 20 4f 02 01 	vpinsrb $0x1,0x2(%rdi),%xmm9,%xmm9
    660c:	c5 f9 db c2          	vpand  %xmm2,%xmm0,%xmm0
    6610:	c5 c1 db fa          	vpand  %xmm2,%xmm7,%xmm7
    6614:	48 8b bc 24 60 07 00 	mov    0x760(%rsp),%rdi
    661b:	00 
    661c:	0f b6 7f 02          	movzbl 0x2(%rdi),%edi
    6620:	c4 c1 59 61 e1       	vpunpcklwd %xmm9,%xmm4,%xmm4
    6625:	c5 79 6e c7          	vmovd  %edi,%xmm8
    6629:	48 8b bc 24 58 07 00 	mov    0x758(%rsp),%rdi
    6630:	00 
    6631:	c4 63 39 20 5f 02 01 	vpinsrb $0x1,0x2(%rdi),%xmm8,%xmm11
    6638:	48 8b bc 24 50 07 00 	mov    0x750(%rsp),%rdi
    663f:	00 
    6640:	0f b6 7f 02          	movzbl 0x2(%rdi),%edi
    6644:	c5 79 6e c7          	vmovd  %edi,%xmm8
    6648:	48 8b bc 24 48 07 00 	mov    0x748(%rsp),%rdi
    664f:	00 
    6650:	c4 63 39 20 47 02 01 	vpinsrb $0x1,0x2(%rdi),%xmm8,%xmm8
    6657:	48 8b bc 24 40 07 00 	mov    0x740(%rsp),%rdi
    665e:	00 
    665f:	0f b6 7f 02          	movzbl 0x2(%rdi),%edi
    6663:	c4 41 21 61 c0       	vpunpcklwd %xmm8,%xmm11,%xmm8
    6668:	c4 c1 59 62 e0       	vpunpckldq %xmm8,%xmm4,%xmm4
    666d:	c5 f9 6e ef          	vmovd  %edi,%xmm5
    6671:	48 8b bc 24 38 07 00 	mov    0x738(%rsp),%rdi
    6678:	00 
    6679:	c4 e3 51 20 6f 02 01 	vpinsrb $0x1,0x2(%rdi),%xmm5,%xmm5
    6680:	48 8b bc 24 30 07 00 	mov    0x730(%rsp),%rdi
    6687:	00 
    6688:	0f b6 7f 02          	movzbl 0x2(%rdi),%edi
    668c:	c5 79 6e e7          	vmovd  %edi,%xmm12
    6690:	41 0f b6 7d 02       	movzbl 0x2(%r13),%edi
    6695:	c4 43 19 20 66 02 01 	vpinsrb $0x1,0x2(%r14),%xmm12,%xmm12
    669c:	c5 f9 6e f7          	vmovd  %edi,%xmm6
    66a0:	0f b6 79 02          	movzbl 0x2(%rcx),%edi
    66a4:	c4 43 49 20 54 24 02 	vpinsrb $0x1,0x2(%r12),%xmm6,%xmm10
    66ab:	01 
    66ac:	c4 c1 51 61 ec       	vpunpcklwd %xmm12,%xmm5,%xmm5
    66b1:	c5 f9 6e f7          	vmovd  %edi,%xmm6
    66b5:	c4 a3 49 20 74 39 02 	vpinsrb $0x1,0x2(%rcx,%r15,1),%xmm6,%xmm6
    66bc:	01 
    66bd:	c5 a9 61 f6          	vpunpcklwd %xmm6,%xmm10,%xmm6
    66c1:	c5 d1 62 ee          	vpunpckldq %xmm6,%xmm5,%xmm5
    66c5:	c5 d9 6c e5          	vpunpcklqdq %xmm5,%xmm4,%xmm4
    66c9:	c5 f9 db c4          	vpand  %xmm4,%xmm0,%xmm0
    66cd:	c5 f9 eb c7          	vpor   %xmm7,%xmm0,%xmm0
    66d1:	c4 a3 79 14 04 03 00 	vpextrb $0x0,%xmm0,(%rbx,%r8,1)
    66d8:	4f 8d 04 79          	lea    (%r9,%r15,2),%r8
    66dc:	c4 83 79 14 04 39 01 	vpextrb $0x1,%xmm0,(%r9,%r15,1)
    66e3:	c4 83 79 14 04 79 02 	vpextrb $0x2,%xmm0,(%r9,%r15,2)
    66ea:	4b 8d 3c 78          	lea    (%r8,%r15,2),%rdi
    66ee:	c4 83 79 14 04 38 03 	vpextrb $0x3,%xmm0,(%r8,%r15,1)
    66f5:	c4 83 79 14 04 78 04 	vpextrb $0x4,%xmm0,(%r8,%r15,2)
    66fc:	4c 8b 8c 24 d8 05 00 	mov    0x5d8(%rsp),%r9
    6703:	00 
    6704:	4e 8d 04 7f          	lea    (%rdi,%r15,2),%r8
    6708:	c4 a3 79 14 04 3f 05 	vpextrb $0x5,%xmm0,(%rdi,%r15,1)
    670f:	c4 a3 79 14 04 7f 06 	vpextrb $0x6,%xmm0,(%rdi,%r15,2)
    6716:	4b 8d 3c 78          	lea    (%r8,%r15,2),%rdi
    671a:	c4 83 79 14 04 38 07 	vpextrb $0x7,%xmm0,(%r8,%r15,1)
    6721:	c4 83 79 14 04 78 08 	vpextrb $0x8,%xmm0,(%r8,%r15,2)
    6728:	4e 8d 04 7f          	lea    (%rdi,%r15,2),%r8
    672c:	c4 a3 79 14 04 3f 09 	vpextrb $0x9,%xmm0,(%rdi,%r15,1)
    6733:	c4 a3 79 14 04 7f 0a 	vpextrb $0xa,%xmm0,(%rdi,%r15,2)
    673a:	4b 8d 3c 78          	lea    (%r8,%r15,2),%rdi
    673e:	c4 83 79 14 04 38 0b 	vpextrb $0xb,%xmm0,(%r8,%r15,1)
    6745:	c4 83 79 14 04 78 0c 	vpextrb $0xc,%xmm0,(%r8,%r15,2)
    674c:	4e 8d 04 7f          	lea    (%rdi,%r15,2),%r8
    6750:	c4 a3 79 14 04 3f 0d 	vpextrb $0xd,%xmm0,(%rdi,%r15,1)
    6757:	c4 a3 79 14 04 7f 0e 	vpextrb $0xe,%xmm0,(%rdi,%r15,2)
    675e:	48 8b bc 24 80 05 00 	mov    0x580(%rsp),%rdi
    6765:	00 
    6766:	c4 83 79 14 04 38 0f 	vpextrb $0xf,%xmm0,(%r8,%r15,1)
    676d:	4f 8d 04 39          	lea    (%r9,%r15,1),%r8
    6771:	4f 8d 0c 38          	lea    (%r8,%r15,1),%r9
    6775:	4c 89 84 24 40 05 00 	mov    %r8,0x540(%rsp)
    677c:	00 
    677d:	4c 01 ff             	add    %r15,%rdi
    6780:	4f 8d 04 39          	lea    (%r9,%r15,1),%r8
    6784:	4c 89 8c 24 38 05 00 	mov    %r9,0x538(%rsp)
    678b:	00 
    678c:	4f 8d 0c 38          	lea    (%r8,%r15,1),%r9
    6790:	4c 89 84 24 d0 05 00 	mov    %r8,0x5d0(%rsp)
    6797:	00 
    6798:	4f 8d 04 39          	lea    (%r9,%r15,1),%r8
    679c:	4c 89 8c 24 c8 05 00 	mov    %r9,0x5c8(%rsp)
    67a3:	00 
    67a4:	4f 8d 0c 38          	lea    (%r8,%r15,1),%r9
    67a8:	4c 89 84 24 c0 05 00 	mov    %r8,0x5c0(%rsp)
    67af:	00 
    67b0:	4f 8d 04 39          	lea    (%r9,%r15,1),%r8
    67b4:	48 89 bc 24 30 05 00 	mov    %rdi,0x530(%rsp)
    67bb:	00 
    67bc:	4c 01 ff             	add    %r15,%rdi
    67bf:	4c 89 84 24 b8 05 00 	mov    %r8,0x5b8(%rsp)
    67c6:	00 
    67c7:	4d 01 f8             	add    %r15,%r8
    67ca:	4c 89 84 24 b0 05 00 	mov    %r8,0x5b0(%rsp)
    67d1:	00 
    67d2:	4d 01 f8             	add    %r15,%r8
    67d5:	4c 89 84 24 a8 05 00 	mov    %r8,0x5a8(%rsp)
    67dc:	00 
    67dd:	4d 01 f8             	add    %r15,%r8
    67e0:	4c 89 84 24 a0 05 00 	mov    %r8,0x5a0(%rsp)
    67e7:	00 
    67e8:	4d 01 f8             	add    %r15,%r8
    67eb:	4c 89 84 24 98 05 00 	mov    %r8,0x598(%rsp)
    67f2:	00 
    67f3:	4d 01 f8             	add    %r15,%r8
    67f6:	4c 89 84 24 90 05 00 	mov    %r8,0x590(%rsp)
    67fd:	00 
    67fe:	4d 01 f8             	add    %r15,%r8
    6801:	4c 89 84 24 88 05 00 	mov    %r8,0x588(%rsp)
    6808:	00 
    6809:	4d 01 f8             	add    %r15,%r8
    680c:	48 89 bc 24 28 05 00 	mov    %rdi,0x528(%rsp)
    6813:	00 
    6814:	4c 01 ff             	add    %r15,%rdi
    6817:	0f b6 12             	movzbl (%rdx),%edx
    681a:	48 89 bc 24 20 05 00 	mov    %rdi,0x520(%rsp)
    6821:	00 
    6822:	4c 01 ff             	add    %r15,%rdi
    6825:	48 89 bc 24 18 05 00 	mov    %rdi,0x518(%rsp)
    682c:	00 
    682d:	4c 01 ff             	add    %r15,%rdi
    6830:	c5 f9 6e ea          	vmovd  %edx,%xmm5
    6834:	48 8b 94 24 28 07 00 	mov    0x728(%rsp),%rdx
    683b:	00 
